(lp0
(lp1
(lp2
S'002217'
p3
aS'aeroplane'
p4
aS'err_lowIoU'
p5
aF64.2
aF67.6
aF483.5
aF301.6
aa(lp6
(lp7
F42.0
aF73.0
aF273.0
aF155.0
aa(lp8
F191.0
aF111.0
aF422.0
aF183.0
aa(lp9
F345.0
aF152.0
aF500.0
aF212.0
aa(lp10
F74.0
aF149.0
aF299.0
aF221.0
aa(lp11
F227.0
aF188.0
aF486.0
aF257.0
aa(lp12
F118.0
aF220.0
aF372.0
aF294.0
aaaa(lp13
(lp14
S'007352'
p15
ag4
ag5
aF288.8
aF1.0
aF491.6
aF230.2
aa(lp16
(lp17
F2.0
aF2.0
aF499.0
aF304.0
aa(lp18
F395.0
aF188.0
aF500.0
aF227.0
aaaa(lp19
(lp20
S'008016'
p21
ag4
ag5
aF177.4
aF85.4
aF323.4
aF211.6
aa(lp22
(lp23
F22.0
aF77.0
aF450.0
aF208.0
aaaa(lp24
(lp25
S'008986'
p26
ag4
ag5
aF50.3
aF132.9
aF486.2
aF356.1
aa(lp27
(lp28
F79.0
aF121.0
aF399.0
aF275.0
aa(lp29
F274.0
aF158.0
aF469.0
aF326.0
aaaa(lp30
(lp31
S'008459'
p32
ag4
ag5
aF81.0
aF146.9
aF489.0
aF342.6
aa(lp33
(lp34
F170.0
aF238.0
aF500.0
aF334.0
aa(lp35
F107.0
aF179.0
aF270.0
aF249.0
aa(lp36
F157.0
aF175.0
aF292.0
aF213.0
aa(lp37
F136.0
aF176.0
aF225.0
aF199.0
aa(lp38
F359.0
aF154.0
aF450.0
aF186.0
aa(lp39
F439.0
aF149.0
aF500.0
aF192.0
aaaa(lp40
(lp41
S'009356'
p42
ag4
ag5
aF407.3
aF250.1
aF437.9
aF277.2
aa(lp43
(lp44
F423.0
aF141.0
aF446.0
aF160.0
aa(lp45
F435.0
aF160.0
aF454.0
aF177.0
aa(lp46
F445.0
aF178.0
aF465.0
aF198.0
aa(lp47
F434.0
aF199.0
aF453.0
aF216.0
aa(lp48
F456.0
aF200.0
aF475.0
aF216.0
aa(lp49
F475.0
aF199.0
aF496.0
aF215.0
aa(lp50
F440.0
aF218.0
aF459.0
aF235.0
aa(lp51
F426.0
aF237.0
aF444.0
aF254.0
aa(lp52
F414.0
aF257.0
aF433.0
aF273.0
aaaa(lp53
(lp54
S'001848'
p55
ag4
ag5
aF175.0
aF114.7
aF446.5
aF190.8
aa(lp56
(lp57
F52.0
aF88.0
aF415.0
aF197.0
aaaa(lp58
(lp59
S'003209'
p60
ag4
ag5
aF13.7
aF137.9
aF323.5
aF209.2
aa(lp61
(lp62
F48.0
aF114.0
aF427.0
aF221.0
aa(lp63
F3.0
aF143.0
aF158.0
aF205.0
aaaa(lp64
(lp65
S'006592'
p66
ag4
ag5
aF1.0
aF22.1
aF500.0
aF246.8
aa(lp67
(lp68
F2.0
aF122.0
aF499.0
aF232.0
aaaa(lp69
(lp70
S'006888'
p71
ag4
ag5
aF149.5
aF49.1
aF340.8
aF112.4
aa(lp72
(lp73
F2.0
aF24.0
aF500.0
aF239.0
aa(lp74
F132.0
aF16.0
aF500.0
aF139.0
aaaa(lp75
(lp76
S'004477'
p77
ag4
ag5
aF130.4
aF189.2
aF289.3
aF239.8
aa(lp78
(lp79
F2.0
aF184.0
aF284.0
aF255.0
aa(lp80
F323.0
aF207.0
aF426.0
aF233.0
aa(lp81
F394.0
aF205.0
aF500.0
aF253.0
aaaa(lp82
(lp83
S'004147'
p84
ag4
ag5
aF8.9
aF9.8
aF489.6
aF251.8
aa(lp85
aa(lp86
(lp87
S'008055'
p88
ag4
ag5
aF288.3
aF139.8
aF333.3
aF164.7
aa(lp89
(lp90
F319.0
aF142.0
aF336.0
aF158.0
aa(lp91
F295.0
aF149.0
aF312.0
aF163.0
aa(lp92
F305.0
aF126.0
aF324.0
aF142.0
aa(lp93
F320.0
aF69.0
aF337.0
aF85.0
aa(lp94
F308.0
aF90.0
aF327.0
aF105.0
aa(lp95
F298.0
aF112.0
aF314.0
aF125.0
aa(lp96
F274.0
aF118.0
aF291.0
aF132.0
aa(lp97
F249.0
aF119.0
aF266.0
aF132.0
aa(lp98
F261.0
aF138.0
aF280.0
aF152.0
aaaa(lp99
(lp100
S'008554'
p101
ag4
ag5
aF46.8
aF111.7
aF457.2
aF288.7
aa(lp102
(lp103
F204.0
aF114.0
aF435.0
aF196.0
aa(lp104
F1.0
aF165.0
aF89.0
aF196.0
aaaa(lp105
(lp106
S'006406'
p107
ag4
ag5
aF80.9
aF145.8
aF171.3
aF230.7
aa(lp108
(lp109
F290.0
aF112.0
aF374.0
aF150.0
aa(lp110
F174.0
aF133.0
aF252.0
aF167.0
aa(lp111
F86.0
aF151.0
aF164.0
aF183.0
aa(lp112
F89.0
aF178.0
aF169.0
aF206.0
aa(lp113
F78.0
aF201.0
aF160.0
aF236.0
aaaa(lp114
(lp115
S'008055'
p116
ag4
ag5
aF247.1
aF123.0
aF277.6
aF147.6
aa(lp117
(lp118
F319.0
aF142.0
aF336.0
aF158.0
aa(lp119
F295.0
aF149.0
aF312.0
aF163.0
aa(lp120
F305.0
aF126.0
aF324.0
aF142.0
aa(lp121
F320.0
aF69.0
aF337.0
aF85.0
aa(lp122
F308.0
aF90.0
aF327.0
aF105.0
aa(lp123
F298.0
aF112.0
aF314.0
aF125.0
aa(lp124
F274.0
aF118.0
aF291.0
aF132.0
aa(lp125
F249.0
aF119.0
aF266.0
aF132.0
aa(lp126
F261.0
aF138.0
aF280.0
aF152.0
aaaa(lp127
(lp128
S'005106'
p129
ag4
ag5
aF172.4
aF204.2
aF246.8
aF246.5
aa(lp130
(lp131
F124.0
aF193.0
aF289.0
aF245.0
aa(lp132
F352.0
aF219.0
aF417.0
aF243.0
aaaa(lp133
(lp134
S'008055'
p135
ag4
ag5
aF313.1
aF78.1
aF333.8
aF96.3
aa(lp136
(lp137
F319.0
aF142.0
aF336.0
aF158.0
aa(lp138
F295.0
aF149.0
aF312.0
aF163.0
aa(lp139
F305.0
aF126.0
aF324.0
aF142.0
aa(lp140
F320.0
aF69.0
aF337.0
aF85.0
aa(lp141
F308.0
aF90.0
aF327.0
aF105.0
aa(lp142
F298.0
aF112.0
aF314.0
aF125.0
aa(lp143
F274.0
aF118.0
aF291.0
aF132.0
aa(lp144
F249.0
aF119.0
aF266.0
aF132.0
aa(lp145
F261.0
aF138.0
aF280.0
aF152.0
aaaa(lp146
(lp147
S'007026'
p148
ag4
ag5
aF220.9
aF127.8
aF471.5
aF320.8
aa(lp149
(lp150
F1.0
aF153.0
aF443.0
aF335.0
aa(lp151
F243.0
aF191.0
aF489.0
aF297.0
aa(lp152
F121.0
aF132.0
aF316.0
aF190.0
aaaa(lp153
(lp154
S'007164'
p155
ag4
ag5
aF229.6
aF63.2
aF473.2
aF273.1
aa(lp156
(lp157
F1.0
aF58.0
aF458.0
aF308.0
aaaa(lp158
(lp159
S'006435'
p160
ag4
ag5
aF16.1
aF68.6
aF403.2
aF311.7
aa(lp161
aa(lp162
(lp163
S'009332'
p164
ag4
ag5
aF1.0
aF35.2
aF328.8
aF326.5
aa(lp165
(lp166
F196.0
aF247.0
aF334.0
aF356.0
aa(lp167
F1.0
aF245.0
aF81.0
aF344.0
aaaa(lp168
(lp169
S'009356'
p170
ag4
ag5
aF423.3
aF234.5
aF447.7
aF263.4
aa(lp171
(lp172
F423.0
aF141.0
aF446.0
aF160.0
aa(lp173
F435.0
aF160.0
aF454.0
aF177.0
aa(lp174
F445.0
aF178.0
aF465.0
aF198.0
aa(lp175
F434.0
aF199.0
aF453.0
aF216.0
aa(lp176
F456.0
aF200.0
aF475.0
aF216.0
aa(lp177
F475.0
aF199.0
aF496.0
aF215.0
aa(lp178
F440.0
aF218.0
aF459.0
aF235.0
aa(lp179
F426.0
aF237.0
aF444.0
aF254.0
aa(lp180
F414.0
aF257.0
aF433.0
aF273.0
aaaa(lp181
(lp182
S'006888'
p183
ag4
ag5
aF272.9
aF25.2
aF453.6
aF159.7
aa(lp184
(lp185
F2.0
aF24.0
aF500.0
aF239.0
aa(lp186
F132.0
aF16.0
aF500.0
aF139.0
aaaa(lp187
(lp188
S'004513'
p189
ag4
ag5
aF235.7
aF164.7
aF265.4
aF186.6
aa(lp190
aa(lp191
(lp192
S'008714'
p193
ag4
ag5
aF17.2
aF112.6
aF250.5
aF246.0
aa(lp194
(lp195
F15.0
aF68.0
aF479.0
aF293.0
aaaa(lp196
(lp197
S'000668'
p198
ag4
ag5
aF198.8
aF159.8
aF481.9
aF241.3
aa(lp199
(lp200
F15.0
aF107.0
aF456.0
aF262.0
aaaa(lp201
(lp202
S'004477'
p203
ag4
ag5
aF214.3
aF198.3
aF284.8
aF230.7
aa(lp204
(lp205
F2.0
aF184.0
aF284.0
aF255.0
aa(lp206
F323.0
aF207.0
aF426.0
aF233.0
aa(lp207
F394.0
aF205.0
aF500.0
aF253.0
aaaa(lp208
(lp209
S'007870'
p210
ag4
ag5
aF1.0
aF174.0
aF120.3
aF263.2
aa(lp211
(lp212
F1.0
aF162.0
aF419.0
aF261.0
aaaa(lp213
(lp214
S'005392'
p215
ag4
ag5
aF40.1
aF47.1
aF203.6
aF188.1
aa(lp216
(lp217
F34.0
aF49.0
aF500.0
aF234.0
aaaa(lp218
(lp219
S'002996'
p220
ag4
ag5
aF347.9
aF296.6
aF373.5
aF318.3
aa(lp221
aa(lp222
(lp223
S'007580'
p224
ag4
ag5
aF1.0
aF38.7
aF499.9
aF313.2
aa(lp225
aa(lp226
(lp227
S'000696'
p228
ag4
ag5
aF297.5
aF86.6
aF431.6
aF200.7
aa(lp229
(lp230
F103.0
aF90.0
aF430.0
aF214.0
aaaa(lp231
(lp232
S'002110'
p233
ag4
ag5
aF41.9
aF122.3
aF234.7
aF222.4
aa(lp234
(lp235
F26.0
aF54.0
aF464.0
aF232.0
aaaa(lp236
(lp237
S'008006'
p238
ag4
ag5
aF247.2
aF206.0
aF464.4
aF334.7
aa(lp239
aa(lp240
(lp241
S'000444'
p242
ag4
ag5
aF1.0
aF16.2
aF312.4
aF317.9
aa(lp243
aa(lp244
(lp245
S'001424'
p246
ag4
ag5
aF1.0
aF1.0
aF346.5
aF289.0
aa(lp247
aa(lp248
(lp249
S'001665'
p250
ag4
ag5
aF148.2
aF122.2
aF282.3
aF197.0
aa(lp251
aa(lp252
(lp253
S'007157'
p254
ag4
ag5
aF44.4
aF159.2
aF99.1
aF213.0
aa(lp255
(lp256
F47.0
aF123.0
aF481.0
aF296.0
aa(lp257
F1.0
aF170.0
aF100.0
aF217.0
aaaa(lp258
(lp259
S'008481'
p260
ag4
ag5
aF89.1
aF38.7
aF387.9
aF291.3
aa(lp261
aa(lp262
(lp263
S'009356'
p264
ag4
ag5
aF422.1
aF141.1
aF451.8
aF171.2
aa(lp265
(lp266
F423.0
aF141.0
aF446.0
aF160.0
aa(lp267
F435.0
aF160.0
aF454.0
aF177.0
aa(lp268
F445.0
aF178.0
aF465.0
aF198.0
aa(lp269
F434.0
aF199.0
aF453.0
aF216.0
aa(lp270
F456.0
aF200.0
aF475.0
aF216.0
aa(lp271
F475.0
aF199.0
aF496.0
aF215.0
aa(lp272
F440.0
aF218.0
aF459.0
aF235.0
aa(lp273
F426.0
aF237.0
aF444.0
aF254.0
aa(lp274
F414.0
aF257.0
aF433.0
aF273.0
aaaa(lp275
(lp276
S'009919'
p277
ag4
ag5
aF24.8
aF136.4
aF235.8
aF215.5
aa(lp278
(lp279
F27.0
aF135.0
aF473.0
aF245.0
aaaa(lp280
(lp281
S'005681'
p282
ag4
ag5
aF67.5
aF72.9
aF436.8
aF339.8
aa(lp283
aa(lp284
(lp285
S'007290'
p286
ag4
ag5
aF202.8
aF181.0
aF334.7
aF217.7
aa(lp287
(lp288
F129.0
aF153.0
aF320.0
aF224.0
aa(lp289
F398.0
aF177.0
aF492.0
aF214.0
aa(lp290
F90.0
aF176.0
aF164.0
aF216.0
aaaa(lp291
(lp292
S'009427'
p293
ag4
ag5
aF48.0
aF1.0
aF454.6
aF258.3
aa(lp294
aa(lp295
(lp296
S'008537'
p297
ag4
ag5
aF3.2
aF58.1
aF169.7
aF295.7
aa(lp298
(lp299
F4.0
aF12.0
aF500.0
aF311.0
aaaa(lp300
(lp301
S'003460'
p302
ag4
ag5
aF1.0
aF5.9
aF496.5
aF205.0
aa(lp303
aa(lp304
(lp305
S'002198'
p306
ag4
ag5
aF119.3
aF54.4
aF454.5
aF340.7
aa(lp307
(lp308
F118.0
aF106.0
aF426.0
aF177.0
aaaa(lp309
(lp310
S'008552'
p311
ag4
ag5
aF8.5
aF204.5
aF321.9
aF396.4
aa(lp312
aa(lp313
(lp314
S'007837'
p315
ag4
ag5
aF402.6
aF183.8
aF482.3
aF235.7
aa(lp316
(lp317
F65.0
aF96.0
aF481.0
aF277.0
aa(lp318
F424.0
aF212.0
aF500.0
aF245.0
aaaa(lp319
(lp320
S'001660'
p321
ag4
ag5
aF336.4
aF146.9
aF447.5
aF197.1
aa(lp322
(lp323
F191.0
aF120.0
aF481.0
aF187.0
aaaa(lp324
(lp325
S'007096'
p326
ag4
ag5
aF40.3
aF120.0
aF232.1
aF225.6
aa(lp327
(lp328
F51.0
aF87.0
aF496.0
aF229.0
aaaa(lp329
(lp330
S'007367'
p331
ag4
ag5
aF373.0
aF191.0
aF407.2
aF224.7
aa(lp332
(lp333
F284.0
aF183.0
aF412.0
aF219.0
aa(lp334
F72.0
aF167.0
aF229.0
aF195.0
aaaa(lp335
(lp336
S'008055'
p337
ag4
ag5
aF305.2
aF98.1
aF320.7
aF118.6
aa(lp338
(lp339
F319.0
aF142.0
aF336.0
aF158.0
aa(lp340
F295.0
aF149.0
aF312.0
aF163.0
aa(lp341
F305.0
aF126.0
aF324.0
aF142.0
aa(lp342
F320.0
aF69.0
aF337.0
aF85.0
aa(lp343
F308.0
aF90.0
aF327.0
aF105.0
aa(lp344
F298.0
aF112.0
aF314.0
aF125.0
aa(lp345
F274.0
aF118.0
aF291.0
aF132.0
aa(lp346
F249.0
aF119.0
aF266.0
aF132.0
aa(lp347
F261.0
aF138.0
aF280.0
aF152.0
aaaa(lp348
(lp349
S'008537'
p350
ag4
ag5
aF263.5
aF69.7
aF486.9
aF223.6
aa(lp351
(lp352
F4.0
aF12.0
aF500.0
aF311.0
aaaa(lp353
(lp354
S'009356'
p355
ag4
ag5
aF462.0
aF193.4
aF489.0
aF222.4
aa(lp356
(lp357
F423.0
aF141.0
aF446.0
aF160.0
aa(lp358
F435.0
aF160.0
aF454.0
aF177.0
aa(lp359
F445.0
aF178.0
aF465.0
aF198.0
aa(lp360
F434.0
aF199.0
aF453.0
aF216.0
aa(lp361
F456.0
aF200.0
aF475.0
aF216.0
aa(lp362
F475.0
aF199.0
aF496.0
aF215.0
aa(lp363
F440.0
aF218.0
aF459.0
aF235.0
aa(lp364
F426.0
aF237.0
aF444.0
aF254.0
aa(lp365
F414.0
aF257.0
aF433.0
aF273.0
aaaa(lp366
(lp367
S'001099'
p368
ag4
ag5
aF190.8
aF187.3
aF338.0
aF330.4
aa(lp369
(lp370
F3.0
aF97.0
aF500.0
aF327.0
aaaa(lp371
(lp372
S'000067'
p373
ag4
ag5
aF27.3
aF67.5
aF240.8
aF173.4
aa(lp374
(lp375
F44.0
aF72.0
aF450.0
aF210.0
aaaa(lp376
(lp377
S'009083'
p378
ag4
ag5
aF9.0
aF170.5
aF164.9
aF296.4
aa(lp379
(lp380
F4.0
aF160.0
aF497.0
aF318.0
aaaa(lp381
(lp382
S'008055'
p383
ag4
ag5
aF313.5
aF142.8
aF328.0
aF163.0
aa(lp384
(lp385
F319.0
aF142.0
aF336.0
aF158.0
aa(lp386
F295.0
aF149.0
aF312.0
aF163.0
aa(lp387
F305.0
aF126.0
aF324.0
aF142.0
aa(lp388
F320.0
aF69.0
aF337.0
aF85.0
aa(lp389
F308.0
aF90.0
aF327.0
aF105.0
aa(lp390
F298.0
aF112.0
aF314.0
aF125.0
aa(lp391
F274.0
aF118.0
aF291.0
aF132.0
aa(lp392
F249.0
aF119.0
aF266.0
aF132.0
aa(lp393
F261.0
aF138.0
aF280.0
aF152.0
aaaa(lp394
(lp395
S'003843'
p396
ag4
ag5
aF21.4
aF28.0
aF500.0
aF320.6
aa(lp397
aa(lp398
(lp399
S'008234'
p400
ag4
ag5
aF349.6
aF125.9
aF500.0
aF242.6
aa(lp401
aa(lp402
(lp403
S'005842'
p404
ag4
ag5
aF48.0
aF10.7
aF480.8
aF149.5
aa(lp405
aa(lp406
(lp407
S'009329'
p408
ag4
ag5
aF1.2
aF130.8
aF242.2
aF281.0
aa(lp409
(lp410
F5.0
aF3.0
aF498.0
aF333.0
aaaa(lp411
(lp412
S'008055'
p413
ag4
ag5
aF237.8
aF125.0
aF318.9
aF154.7
aa(lp414
(lp415
F319.0
aF142.0
aF336.0
aF158.0
aa(lp416
F295.0
aF149.0
aF312.0
aF163.0
aa(lp417
F305.0
aF126.0
aF324.0
aF142.0
aa(lp418
F320.0
aF69.0
aF337.0
aF85.0
aa(lp419
F308.0
aF90.0
aF327.0
aF105.0
aa(lp420
F298.0
aF112.0
aF314.0
aF125.0
aa(lp421
F274.0
aF118.0
aF291.0
aF132.0
aa(lp422
F249.0
aF119.0
aF266.0
aF132.0
aa(lp423
F261.0
aF138.0
aF280.0
aF152.0
aaaa(lp424
(lp425
S'005008'
p426
ag4
ag5
aF98.9
aF156.3
aF221.5
aF221.1
aa(lp427
(lp428
F69.0
aF111.0
aF390.0
aF255.0
aaaa(lp429
(lp430
S'004596'
p431
ag4
ag5
aF21.7
aF19.7
aF382.0
aF246.0
aa(lp432
aa(lp433
(lp434
S'008028'
p435
ag4
ag5
aF1.0
aF43.5
aF423.2
aF338.6
aa(lp436
aa(lp437
(lp438
S'001994'
p439
ag4
ag5
aF305.9
aF137.1
aF417.0
aF192.2
aa(lp440
(lp441
F210.0
aF141.0
aF420.0
aF240.0
aaaa(lp442
(lp443
S'004377'
p444
ag4
ag5
aF179.4
aF272.0
aF207.4
aF313.4
aa(lp445
(lp446
F200.0
aF175.0
aF220.0
aF201.0
aa(lp447
F201.0
aF207.0
aF217.0
aF228.0
aa(lp448
F196.0
aF227.0
aF213.0
aF252.0
aa(lp449
F199.0
aF237.0
aF216.0
aF259.0
aa(lp450
F193.0
aF260.0
aF211.0
aF283.0
aa(lp451
F186.0
aF285.0
aF202.0
aF310.0
aaaa(lp452
(lp453
S'008016'
p454
ag4
ag5
aF88.0
aF144.9
aF136.5
aF187.7
aa(lp455
(lp456
F22.0
aF77.0
aF450.0
aF208.0
aaaa(lp457
(lp458
S'001783'
p459
ag4
ag5
aF433.3
aF203.0
aF500.0
aF250.6
aa(lp460
(lp461
F72.0
aF189.0
aF297.0
aF261.0
aa(lp462
F369.0
aF195.0
aF500.0
aF261.0
aaaa(lp463
(lp464
S'001046'
p465
ag4
ag5
aF341.9
aF134.2
aF436.5
aF246.6
aa(lp466
(lp467
F15.0
aF117.0
aF430.0
aF243.0
aaaa(lp468
(lp469
S'009356'
p470
ag4
ag5
aF424.5
aF215.8
aF456.0
aF251.5
aa(lp471
(lp472
F423.0
aF141.0
aF446.0
aF160.0
aa(lp473
F435.0
aF160.0
aF454.0
aF177.0
aa(lp474
F445.0
aF178.0
aF465.0
aF198.0
aa(lp475
F434.0
aF199.0
aF453.0
aF216.0
aa(lp476
F456.0
aF200.0
aF475.0
aF216.0
aa(lp477
F475.0
aF199.0
aF496.0
aF215.0
aa(lp478
F440.0
aF218.0
aF459.0
aF235.0
aa(lp479
F426.0
aF237.0
aF444.0
aF254.0
aa(lp480
F414.0
aF257.0
aF433.0
aF273.0
aaaa(lp481
(lp482
S'000846'
p483
ag4
ag5
aF140.7
aF209.1
aF230.6
aF253.5
aa(lp484
(lp485
F123.0
aF177.0
aF165.0
aF208.0
aa(lp486
F147.0
aF213.0
aF187.0
aF243.0
aa(lp487
F174.0
aF244.0
aF213.0
aF273.0
aa(lp488
F189.0
aF211.0
aF231.0
aF241.0
aa(lp489
F213.0
aF181.0
aF251.0
aF212.0
aa(lp490
F259.0
aF185.0
aF298.0
aF215.0
aa(lp491
F190.0
aF152.0
aF230.0
aF182.0
aa(lp492
F146.0
aF142.0
aF185.0
aF173.0
aa(lp493
F168.0
aF103.0
aF206.0
aF134.0
aaaa(lp494
(lp495
S'006232'
p496
ag4
ag5
aF88.9
aF147.6
aF251.5
aF273.0
aa(lp497
(lp498
F86.0
aF145.0
aF482.0
aF282.0
aaaa(lp499
(lp500
S'006888'
p501
ag4
ag5
aF1.0
aF94.8
aF281.4
aF191.9
aa(lp502
(lp503
F2.0
aF24.0
aF500.0
aF239.0
aa(lp504
F132.0
aF16.0
aF500.0
aF139.0
aaaa(lp505
a(lp506
a(lp507
a(lp508
a(lp509
a(lp510
a(lp511
a(lp512
a(lp513
a(lp514
a(lp515
a(lp516
a(lp517
a(lp518
a(lp519
a(lp520
a(lp521
a(lp522
a(lp523
a(lp524
a(lp525
a(lp526
a(lp527
a(lp528
a(lp529
a(lp530
a(lp531
a(lp532
a(lp533
a(lp534
a(lp535
a(lp536
a(lp537
a(lp538
a(lp539
a(lp540
a(lp541
a(lp542
a(lp543
a(lp544
a(lp545
a(lp546
a(lp547
a(lp548
a(lp549
a(lp550
a(lp551
a(lp552
a(lp553
a(lp554
a(lp555
a(lp556
a(lp557
a(lp558
a(lp559
a(lp560
a(lp561
a(lp562
a(lp563
a(lp564
a(lp565
a(lp566
a(lp567
a(lp568
a(lp569
a(lp570
a(lp571
a(lp572
a(lp573
a(lp574
a(lp575
a(lp576
a(lp577
a(lp578
a(lp579
a(lp580
a(lp581
a(lp582
a(lp583
a(lp584
a(lp585
a(lp586
a(lp587
a(lp588
a(lp589
a(lp590
a(lp591
a(lp592
a(lp593
a(lp594
a(lp595
a(lp596
a(lp597
a(lp598
a(lp599
a(lp600
a(lp601
a(lp602
a(lp603
a(lp604
a(lp605
a(lp606
a(lp607
a(lp608
a(lp609
a(lp610
a(lp611
a(lp612
a(lp613
a(lp614
a(lp615
a(lp616
a(lp617
a(lp618
a(lp619
a(lp620
a(lp621
a(lp622
a(lp623
a(lp624
a(lp625
a(lp626
a(lp627
a(lp628
a(lp629
a(lp630
a(lp631
a(lp632
a(lp633
a(lp634
a(lp635
a(lp636
a(lp637
a(lp638
a(lp639
a(lp640
a(lp641
a(lp642
a(lp643
a(lp644
a(lp645
a(lp646
a(lp647
a(lp648
a(lp649
a(lp650
a(lp651
a(lp652
a(lp653
a(lp654
a(lp655
a(lp656
a(lp657
a(lp658
a(lp659
a(lp660
a(lp661
a(lp662
a(lp663
a(lp664
a(lp665
a(lp666
a(lp667
a(lp668
a(lp669
a(lp670
a(lp671
a(lp672
a(lp673
a(lp674
a(lp675
a(lp676
a(lp677
a(lp678
a(lp679
a(lp680
a(lp681
a(lp682
a(lp683
a(lp684
a(lp685
a(lp686
a(lp687
a(lp688
a(lp689
a(lp690
a(lp691
a(lp692
a(lp693
a(lp694
a(lp695
a(lp696
a(lp697
a(lp698
a(lp699
a(lp700
a(lp701
a(lp702
a(lp703
a(lp704
a(lp705
a(lp706
a(lp707
a(lp708
a(lp709
a(lp710
a(lp711
a(lp712
a.