(lp0
(lp1
(lp2
S'009534'
p3
aS'bicycle'
p4
aS'err_lowIoU'
p5
aF10.3
aF251.7
aF85.4
aF297.0
aa(lp6
(lp7
F312.0
aF247.0
aF433.0
aF332.0
aa(lp8
F67.0
aF237.0
aF160.0
aF305.0
aaaF0.989
aa(lp9
(lp10
S'002168'
p11
ag4
ag5
aF218.2
aF219.3
aF289.7
aF309.1
aa(lp12
(lp13
F430.0
aF230.0
aF500.0
aF310.0
aa(lp14
F358.0
aF227.0
aF429.0
aF299.0
aa(lp15
F295.0
aF233.0
aF351.0
aF305.0
aa(lp16
F187.0
aF217.0
aF218.0
aF254.0
aa(lp17
F153.0
aF223.0
aF185.0
aF281.0
aa(lp18
F121.0
aF230.0
aF155.0
aF321.0
aaaF0.987
aa(lp19
(lp20
S'006365'
p21
ag4
ag5
aF316.0
aF164.6
aF471.8
aF308.2
aa(lp22
aF0.985
aa(lp23
(lp24
S'009730'
p25
ag4
ag5
aF238.8
aF174.8
aF341.4
aF305.2
aa(lp26
(lp27
F244.0
aF78.0
aF426.0
aF301.0
aaaF0.984
aa(lp28
(lp29
S'007747'
p30
ag4
ag5
aF376.3
aF5.6
aF415.5
aF54.1
aa(lp31
aF0.983
aa(lp32
(lp33
S'001606'
p34
ag4
ag5
aF237.2
aF162.4
aF457.9
aF381.0
aa(lp35
(lp36
F238.0
aF187.0
aF360.0
aF381.0
aa(lp37
F374.0
aF175.0
aF443.0
aF381.0
aa(lp38
F1.0
aF163.0
aF156.0
aF381.0
aaaF0.979
aa(lp39
(lp40
S'006861'
p41
ag4
ag5
aF12.2
aF227.9
aF177.8
aF335.0
aa(lp42
(lp43
F1.0
aF214.0
aF379.0
aF335.0
aaaF0.977
aa(lp44
(lp45
S'001748'
p46
ag4
ag5
aF147.1
aF134.3
aF221.0
aF255.2
aa(lp47
(lp48
F95.0
aF85.0
aF232.0
aF253.0
aaaF0.975
aa(lp49
(lp50
S'002168'
p51
ag4
ag5
aF105.4
aF213.2
aF184.4
aF323.5
aa(lp52
(lp53
F430.0
aF230.0
aF500.0
aF310.0
aa(lp54
F358.0
aF227.0
aF429.0
aF299.0
aa(lp55
F295.0
aF233.0
aF351.0
aF305.0
aa(lp56
F187.0
aF217.0
aF218.0
aF254.0
aa(lp57
F153.0
aF223.0
aF185.0
aF281.0
aa(lp58
F121.0
aF230.0
aF155.0
aF321.0
aaaF0.967
aa(lp59
(lp60
S'008271'
p61
ag4
ag5
aF13.3
aF219.6
aF87.3
aF290.3
aa(lp62
aF0.966
aa(lp63
(lp64
S'008367'
p65
ag4
ag5
aF204.6
aF190.5
aF410.5
aF362.4
aa(lp66
(lp67
F43.0
aF42.0
aF127.0
aF94.0
aa(lp68
F344.0
aF117.0
aF410.0
aF176.0
aa(lp69
F409.0
aF110.0
aF443.0
aF171.0
aa(lp70
F200.0
aF211.0
aF369.0
aF308.0
aa(lp71
F231.0
aF291.0
aF400.0
aF375.0
aaaF0.951
aa(lp72
(lp73
S'002060'
p74
ag4
ag5
aF221.8
aF258.4
aF289.0
aF373.4
aa(lp75
(lp76
F203.0
aF224.0
aF310.0
aF375.0
aaaF0.942
aa(lp77
(lp78
S'008839'
p79
ag4
ag5
aF10.8
aF177.0
aF188.2
aF333.0
aa(lp80
(lp81
F295.0
aF143.0
aF454.0
aF326.0
aaaF0.94
aa(lp82
(lp83
S'003075'
p84
ag4
ag5
aF13.6
aF152.1
aF389.0
aF497.3
aa(lp85
(lp86
F4.0
aF132.0
aF167.0
aF486.0
aa(lp87
F248.0
aF143.0
aF389.0
aF500.0
aaaF0.898
aa(lp88
(lp89
S'004616'
p90
ag4
ag5
aF28.4
aF121.8
aF253.2
aF375.0
aa(lp91
aF0.898
aa(lp92
(lp93
S'003295'
p94
ag4
ag5
aF107.4
aF242.3
aF272.7
aF333.0
aa(lp95
aF0.894
aa(lp96
(lp97
S'005132'
p98
ag4
ag5
aF331.6
aF151.4
aF415.1
aF258.2
aa(lp99
aF0.893
aa(lp100
(lp101
S'002626'
p102
ag4
ag5
aF253.2
aF372.0
aF333.9
aF440.0
aa(lp103
(lp104
F193.0
aF339.0
aF213.0
aF408.0
aa(lp105
F253.0
aF328.0
aF306.0
aF443.0
aa(lp106
F282.0
aF373.0
aF374.0
aF500.0
aa(lp107
F242.0
aF320.0
aF278.0
aF392.0
aa(lp108
F91.0
aF318.0
aF123.0
aF382.0
aaaF0.885
aa(lp109
(lp110
S'007309'
p111
ag4
ag5
aF166.7
aF3.6
aF329.4
aF334.4
aa(lp112
(lp113
F5.0
aF28.0
aF332.0
aF470.0
aaaF0.883
aa(lp114
(lp115
S'008259'
p116
ag4
ag5
aF89.4
aF149.3
aF195.1
aF316.0
aa(lp117
aF0.882
aa(lp118
(lp119
S'001988'
p120
ag4
ag5
aF154.5
aF210.1
aF331.2
aF465.1
aa(lp121
(lp122
F10.0
aF151.0
aF333.0
aF495.0
aaaF0.867
aa(lp123
(lp124
S'000201'
p125
ag4
ag5
aF297.4
aF128.0
aF381.2
aF326.4
aa(lp126
aF0.863
aa(lp127
(lp128
S'006620'
p129
ag4
ag5
aF25.2
aF1.0
aF249.8
aF316.4
aa(lp130
(lp131
F139.0
aF29.0
aF220.0
aF292.0
aaaF0.861
aa(lp132
(lp133
S'001307'
p134
ag4
ag5
aF245.6
aF105.1
aF279.7
aF157.4
aa(lp135
(lp136
F16.0
aF109.0
aF50.0
aF173.0
aa(lp137
F261.0
aF118.0
aF284.0
aF155.0
aa(lp138
F223.0
aF197.0
aF263.0
aF260.0
aa(lp139
F267.0
aF136.0
aF367.0
aF270.0
aa(lp140
F336.0
aF216.0
aF423.0
aF301.0
aaaF0.84
aa(lp141
(lp142
S'002626'
p143
ag4
ag5
aF177.4
aF322.3
aF228.4
aF404.5
aa(lp144
(lp145
F193.0
aF339.0
aF213.0
aF408.0
aa(lp146
F253.0
aF328.0
aF306.0
aF443.0
aa(lp147
F282.0
aF373.0
aF374.0
aF500.0
aa(lp148
F242.0
aF320.0
aF278.0
aF392.0
aa(lp149
F91.0
aF318.0
aF123.0
aF382.0
aaaF0.839
aa(lp150
(lp151
S'006993'
p152
ag4
ag5
aF42.2
aF12.5
aF313.2
aF213.3
aa(lp153
(lp154
F40.0
aF33.0
aF426.0
aF334.0
aaaF0.833
aa(lp155
(lp156
S'002130'
p157
ag4
ag5
aF87.5
aF90.7
aF399.5
aF297.7
aa(lp158
aF0.833
aa(lp159
(lp160
S'003388'
p161
ag4
ag5
aF112.0
aF107.1
aF185.6
aF180.1
aa(lp162
(lp163
F436.0
aF76.0
aF500.0
aF128.0
aa(lp164
F389.0
aF95.0
aF407.0
aF135.0
aa(lp165
F200.0
aF110.0
aF244.0
aF208.0
aa(lp166
F124.0
aF131.0
aF185.0
aF169.0
aa(lp167
F53.0
aF164.0
aF123.0
aF307.0
aa(lp168
F222.0
aF217.0
aF408.0
aF334.0
aa(lp169
F469.0
aF235.0
aF500.0
aF334.0
aaaF0.832
aa(lp170
(lp171
S'000704'
p172
ag4
ag5
aF350.8
aF106.0
aF490.8
aF336.2
aa(lp173
aF0.806
aa(lp174
(lp175
S'004769'
p176
ag4
ag5
aF418.5
aF190.2
aF496.9
aF372.1
aa(lp177
(lp178
F200.0
aF178.0
aF500.0
aF375.0
aaaF0.8
aa(lp179
(lp180
S'001403'
p181
ag4
ag5
aF81.9
aF168.9
aF156.6
aF229.9
aa(lp182
(lp183
F50.0
aF170.0
aF128.0
aF228.0
aa(lp184
F129.0
aF170.0
aF206.0
aF237.0
aa(lp185
F246.0
aF173.0
aF329.0
aF250.0
aa(lp186
F368.0
aF187.0
aF475.0
aF264.0
aa(lp187
F458.0
aF187.0
aF496.0
aF267.0
aaaF0.786
aa(lp188
(lp189
S'002920'
p190
ag4
ag5
aF214.7
aF224.0
aF441.1
aF281.0
aa(lp191
(lp192
F420.0
aF229.0
aF486.0
aF281.0
aa(lp193
F315.0
aF226.0
aF394.0
aF281.0
aa(lp194
F228.0
aF209.0
aF314.0
aF279.0
aa(lp195
F72.0
aF201.0
aF177.0
aF280.0
aa(lp196
F47.0
aF203.0
aF137.0
aF273.0
aa(lp197
F1.0
aF219.0
aF31.0
aF263.0
aaaF0.784
aa(lp198
(lp199
S'004769'
p200
ag4
ag5
aF221.6
aF183.5
aF375.9
aF373.2
aa(lp201
(lp202
F200.0
aF178.0
aF500.0
aF375.0
aaaF0.757
aa(lp203
(lp204
S'005632'
p205
ag4
ag5
aF4.9
aF157.2
aF188.5
aF278.0
aa(lp206
(lp207
F2.0
aF64.0
aF297.0
aF278.0
aaaF0.751
aa(lp208
(lp209
S'000666'
p210
ag4
ag5
aF3.7
aF179.1
aF50.3
aF308.7
aa(lp211
aF0.738
aa(lp212
(lp213
S'001496'
p214
ag4
ag5
aF74.7
aF80.2
aF330.7
aF295.3
aa(lp215
(lp216
F365.0
aF110.0
aF494.0
aF234.0
aa(lp217
F218.0
aF133.0
aF345.0
aF264.0
aa(lp218
F82.0
aF178.0
aF203.0
aF304.0
aa(lp219
F163.0
aF49.0
aF285.0
aF160.0
aaaF0.735
aa(lp220
(lp221
S'007012'
p222
ag4
ag5
aF260.9
aF16.6
aF443.8
aF330.9
aa(lp223
aF0.731
aa(lp224
(lp225
S'006608'
p226
ag4
ag5
aF345.0
aF18.5
aF449.6
aF157.6
aa(lp227
(lp228
F23.0
aF61.0
aF436.0
aF317.0
aa(lp229
F373.0
aF34.0
aF500.0
aF140.0
aaaF0.723
aa(lp230
(lp231
S'001503'
p232
ag4
ag5
aF77.4
aF86.2
aF267.7
aF325.5
aa(lp233
aF0.719
aa(lp234
(lp235
S'002797'
p236
ag4
ag5
aF365.8
aF193.8
aF428.4
aF260.5
aa(lp237
aF0.707
aa(lp238
(lp239
S'003075'
p240
ag4
ag5
aF317.0
aF192.7
aF389.0
aF500.0
aa(lp241
(lp242
F4.0
aF132.0
aF167.0
aF486.0
aa(lp243
F248.0
aF143.0
aF389.0
aF500.0
aaaF0.701
aa(lp244
(lp245
S'007983'
p246
ag4
ag5
aF7.0
aF108.7
aF271.1
aF468.0
aa(lp247
aF0.7
aa(lp248
(lp249
S'006608'
p250
ag4
ag5
aF238.0
aF33.2
aF440.4
aF227.8
aa(lp251
(lp252
F23.0
aF61.0
aF436.0
aF317.0
aa(lp253
F373.0
aF34.0
aF500.0
aF140.0
aaaF0.695
aa(lp254
(lp255
S'008362'
p256
ag4
ag5
aF13.9
aF148.0
aF441.8
aF322.6
aa(lp257
(lp258
F373.0
aF1.0
aF500.0
aF141.0
aa(lp259
F294.0
aF252.0
aF403.0
aF334.0
aaaF0.684
aa(lp260
(lp261
S'006737'
p262
ag4
ag5
aF93.9
aF117.2
aF375.7
aF317.8
aa(lp263
(lp264
F252.0
aF156.0
aF357.0
aF316.0
aaaF0.682
aa(lp265
(lp266
S'007541'
p267
ag4
ag5
aF274.9
aF219.8
aF426.6
aF341.2
aa(lp268
(lp269
F162.0
aF116.0
aF436.0
aF350.0
aaaF0.669
aa(lp270
(lp271
S'001307'
p272
ag4
ag5
aF463.0
aF117.1
aF500.0
aF229.9
aa(lp273
(lp274
F16.0
aF109.0
aF50.0
aF173.0
aa(lp275
F261.0
aF118.0
aF284.0
aF155.0
aa(lp276
F223.0
aF197.0
aF263.0
aF260.0
aa(lp277
F267.0
aF136.0
aF367.0
aF270.0
aa(lp278
F336.0
aF216.0
aF423.0
aF301.0
aaaF0.666
aa(lp279
(lp280
S'008590'
p281
ag4
ag5
aF73.6
aF322.6
aF154.9
aF353.5
aa(lp282
aF0.63
aa(lp283
(lp284
S'001256'
p285
ag4
ag5
aF399.1
aF162.8
aF498.0
aF343.1
aa(lp286
(lp287
F212.0
aF192.0
aF263.0
aF216.0
aa(lp288
F443.0
aF188.0
aF500.0
aF322.0
aa(lp289
F416.0
aF196.0
aF472.0
aF315.0
aa(lp290
F403.0
aF201.0
aF450.0
aF309.0
aaaF0.625
aa(lp291
(lp292
S'003312'
p293
ag4
ag5
aF158.4
aF10.9
aF204.3
aF50.7
aa(lp294
(lp295
F25.0
aF11.0
aF488.0
aF320.0
aaaF0.62
aa(lp296
(lp297
S'005294'
p298
ag4
ag5
aF17.4
aF9.3
aF329.1
aF375.0
aa(lp299
aF0.62
aa(lp300
(lp301
S'005115'
p302
ag4
ag5
aF3.3
aF19.1
aF224.8
aF375.0
aa(lp303
aF0.619
aa(lp304
(lp305
S'003388'
p306
ag4
ag5
aF56.6
aF102.2
aF145.7
aF312.5
aa(lp307
(lp308
F436.0
aF76.0
aF500.0
aF128.0
aa(lp309
F389.0
aF95.0
aF407.0
aF135.0
aa(lp310
F200.0
aF110.0
aF244.0
aF208.0
aa(lp311
F124.0
aF131.0
aF185.0
aF169.0
aa(lp312
F53.0
aF164.0
aF123.0
aF307.0
aa(lp313
F222.0
aF217.0
aF408.0
aF334.0
aa(lp314
F469.0
aF235.0
aF500.0
aF334.0
aaaF0.619
aa(lp315
(lp316
S'002488'
p317
ag4
ag5
aF1.0
aF194.5
aF375.0
aF500.0
aa(lp318
aF0.575
aa(lp319
(lp320
S'000086'
p321
ag4
ag5
aF221.6
aF146.0
aF278.0
aF185.8
aa(lp322
aF0.568
aa(lp323
(lp324
S'008540'
p325
ag4
ag5
aF290.1
aF120.6
aF422.8
aF303.5
aa(lp326
(lp327
F176.0
aF37.0
aF414.0
aF333.0
aa(lp328
F1.0
aF1.0
aF198.0
aF283.0
aaaF0.566
aa(lp329
(lp330
S'003388'
p331
ag4
ag5
aF181.4
aF55.3
aF450.8
aF334.0
aa(lp332
(lp333
F436.0
aF76.0
aF500.0
aF128.0
aa(lp334
F389.0
aF95.0
aF407.0
aF135.0
aa(lp335
F200.0
aF110.0
aF244.0
aF208.0
aa(lp336
F124.0
aF131.0
aF185.0
aF169.0
aa(lp337
F53.0
aF164.0
aF123.0
aF307.0
aa(lp338
F222.0
aF217.0
aF408.0
aF334.0
aa(lp339
F469.0
aF235.0
aF500.0
aF334.0
aaaF0.558
aa(lp340
(lp341
S'005777'
p342
ag4
ag5
aF1.0
aF225.9
aF82.3
aF333.0
aa(lp343
(lp344
F128.0
aF192.0
aF500.0
aF333.0
aa(lp345
F1.0
aF167.0
aF203.0
aF331.0
aaaF0.552
aa(lp346
(lp347
S'002495'
p348
ag4
ag5
aF200.9
aF140.5
aF464.6
aF358.0
aa(lp349
aF0.543
aa(lp350
(lp351
S'001307'
p352
ag4
ag5
aF257.2
aF119.3
aF396.4
aF317.8
aa(lp353
(lp354
F16.0
aF109.0
aF50.0
aF173.0
aa(lp355
F261.0
aF118.0
aF284.0
aF155.0
aa(lp356
F223.0
aF197.0
aF263.0
aF260.0
aa(lp357
F267.0
aF136.0
aF367.0
aF270.0
aa(lp358
F336.0
aF216.0
aF423.0
aF301.0
aaaF0.54
aa(lp359
(lp360
S'009850'
p361
ag4
ag5
aF259.1
aF247.7
aF302.0
aF319.9
aa(lp362
aF0.524
aa(lp363
(lp364
S'000674'
p365
ag4
ag5
aF48.8
aF34.8
aF263.7
aF372.8
aa(lp366
aF0.524
aa(lp367
(lp368
S'008868'
p369
ag4
ag5
aF340.2
aF202.0
aF432.4
aF322.1
aa(lp370
aF0.507
aa(lp371
(lp372
S'005163'
p373
ag4
ag5
aF261.5
aF143.1
aF297.3
aF216.8
aa(lp374
aF0.504
aa(lp375
(lp376
S'000111'
p377
ag4
ag5
aF281.7
aF182.6
aF313.7
aF219.6
aa(lp378
(lp379
F142.0
aF206.0
aF177.0
aF222.0
aa(lp380
F179.0
aF205.0
aF213.0
aF222.0
aa(lp381
F174.0
aF192.0
aF190.0
aF209.0
aa(lp382
F218.0
aF205.0
aF251.0
aF216.0
aa(lp383
F242.0
aF197.0
aF260.0
aF210.0
aa(lp384
F275.0
aF202.0
aF306.0
aF216.0
aa(lp385
F302.0
aF198.0
aF318.0
aF209.0
aa(lp386
F333.0
aF192.0
aF362.0
aF210.0
aaaF0.501
aa(lp387
(lp388
S'002739'
p389
ag4
ag5
aF159.3
aF223.2
aF234.9
aF328.6
aa(lp390
aF0.498
aa(lp391
(lp392
S'003930'
p393
ag4
ag5
aF59.0
aF1.0
aF195.4
aF322.3
aa(lp394
aF0.496
aa(lp395
a(lp396
a(lp397
a(lp398
a(lp399
a(lp400
a(lp401
a(lp402
a(lp403
a(lp404
a(lp405
a(lp406
a(lp407
a(lp408
a(lp409
a(lp410
a(lp411
a(lp412
a(lp413
a(lp414
a(lp415
a(lp416
a(lp417
a(lp418
a(lp419
a(lp420
a(lp421
a(lp422
a(lp423
a(lp424
a(lp425
a(lp426
a(lp427
a(lp428
a(lp429
a(lp430
a(lp431
a(lp432
a(lp433
a(lp434
a(lp435
a(lp436
a(lp437
a(lp438
a(lp439
a(lp440
a(lp441
a(lp442
a(lp443
a(lp444
a(lp445
a(lp446
a(lp447
a(lp448
a(lp449
a(lp450
a(lp451
a(lp452
a(lp453
a(lp454
a(lp455
a(lp456
a(lp457
a(lp458
a(lp459
a(lp460
a(lp461
a(lp462
a(lp463
a(lp464
a(lp465
a(lp466
a(lp467
a(lp468
a(lp469
a(lp470
a(lp471
a(lp472
a(lp473
a(lp474
a(lp475
a(lp476
a(lp477
a(lp478
a(lp479
a(lp480
a(lp481
a(lp482
a(lp483
a(lp484
a(lp485
a(lp486
a(lp487
a(lp488
a(lp489
a(lp490
a(lp491
a(lp492
a(lp493
a(lp494
a(lp495
a(lp496
a(lp497
a(lp498
a(lp499
a(lp500
a(lp501
a(lp502
a(lp503
a(lp504
a(lp505
a(lp506
a(lp507
a(lp508
a(lp509
a(lp510
a(lp511
a(lp512
a(lp513
a(lp514
a(lp515
a(lp516
a(lp517
a(lp518
a(lp519
a(lp520
a(lp521
a(lp522
a(lp523
a(lp524
a(lp525
a(lp526
a(lp527
a(lp528
a(lp529
a(lp530
a(lp531
a(lp532
a(lp533
a(lp534
a(lp535
a(lp536
a(lp537
a(lp538
a(lp539
a(lp540
a(lp541
a(lp542
a(lp543
a(lp544
a(lp545
a(lp546
a(lp547
a(lp548
a(lp549
a(lp550
a(lp551
a(lp552
a(lp553
a(lp554
a(lp555
a(lp556
a(lp557
a(lp558
a(lp559
a(lp560
a(lp561
a(lp562
a(lp563
a(lp564
a(lp565
a(lp566
a(lp567
a(lp568
a(lp569
a(lp570
a(lp571
a(lp572
a(lp573
a(lp574
a(lp575
a(lp576
a(lp577
a(lp578
a(lp579
a(lp580
a(lp581
a(lp582
a(lp583
a(lp584
a(lp585
a(lp586
a(lp587
a(lp588
a(lp589
a(lp590
a(lp591
a(lp592
a(lp593
a(lp594
a(lp595
a(lp596
a(lp597
a(lp598
a(lp599
a(lp600
a(lp601
a(lp602
a(lp603
a(lp604
a(lp605
a(lp606
a(lp607
a(lp608
a(lp609
a(lp610
a(lp611
a(lp612
a(lp613
a(lp614
a(lp615
a(lp616
a(lp617
a(lp618
a(lp619
a(lp620
a(lp621
a(lp622
a(lp623
a(lp624
a(lp625
a(lp626
a(lp627
a(lp628
a(lp629
a(lp630
a(lp631
a(lp632
a(lp633
a(lp634
a(lp635
a(lp636
a(lp637
a(lp638
a(lp639
a(lp640
a(lp641
a(lp642
a(lp643
a(lp644
a(lp645
a(lp646
a(lp647
a(lp648
a(lp649
a(lp650
a(lp651
a(lp652
a(lp653
a(lp654
a(lp655
a(lp656
a(lp657
a(lp658
a(lp659
a(lp660
a(lp661
a(lp662
a(lp663
a(lp664
a.