(lp0
(lp1
(lp2
S'006132'
p3
aS'bird'
p4
aS'err_lowIoU'
p5
aF22.4
aF50.5
aF477.3
aF333.0
aa(lp6
(lp7
F252.0
aF25.0
aF468.0
aF333.0
aa(lp8
F35.0
aF69.0
aF265.0
aF332.0
aaaF0.998
aa(lp9
(lp10
S'005502'
p11
ag4
ag5
aF176.5
aF133.4
aF317.2
aF269.6
aa(lp12
(lp13
F182.0
aF127.0
aF238.0
aF295.0
aa(lp14
F224.0
aF129.0
aF270.0
aF295.0
aa(lp15
F248.0
aF138.0
aF315.0
aF325.0
aaaF0.995
aa(lp16
(lp17
S'003598'
p18
ag4
ag5
aF290.3
aF10.6
aF496.9
aF375.0
aa(lp19
(lp20
F82.0
aF11.0
aF280.0
aF141.0
aa(lp21
F55.0
aF150.0
aF143.0
aF361.0
aa(lp22
F10.0
aF266.0
aF74.0
aF368.0
aa(lp23
F82.0
aF114.0
aF290.0
aF266.0
aa(lp24
F160.0
aF267.0
aF327.0
aF370.0
aa(lp25
F99.0
aF34.0
aF486.0
aF364.0
aa(lp26
F314.0
aF45.0
aF429.0
aF146.0
aaaF0.992
aa(lp27
(lp28
S'008305'
p29
ag4
ag5
aF130.5
aF99.1
aF486.7
aF366.5
aa(lp30
(lp31
F140.0
aF95.0
aF439.0
aF245.0
aaaF0.99
aa(lp32
(lp33
S'002630'
p34
ag4
ag5
aF65.6
aF64.0
aF468.0
aF306.5
aa(lp35
(lp36
F74.0
aF41.0
aF266.0
aF335.0
aa(lp37
F317.0
aF76.0
aF479.0
aF335.0
aa(lp38
F420.0
aF99.0
aF500.0
aF182.0
aaaF0.989
aa(lp39
(lp40
S'004059'
p41
ag4
ag5
aF194.5
aF142.0
aF250.2
aF208.0
aa(lp42
(lp43
F179.0
aF198.0
aF212.0
aF272.0
aa(lp44
F216.0
aF161.0
aF248.0
aF216.0
aa(lp45
F185.0
aF133.0
aF234.0
aF191.0
aa(lp46
F176.0
aF170.0
aF211.0
aF208.0
aa(lp47
F252.0
aF201.0
aF332.0
aF259.0
aa(lp48
F226.0
aF43.0
aF251.0
aF71.0
aa(lp49
F251.0
aF50.0
aF275.0
aF85.0
aa(lp50
F288.0
aF81.0
aF306.0
aF120.0
aa(lp51
F304.0
aF61.0
aF336.0
aF93.0
aaaF0.989
aa(lp52
(lp53
S'000561'
p54
ag4
ag5
aF131.3
aF260.3
aF302.8
aF376.7
aa(lp55
(lp56
F145.0
aF167.0
aF311.0
aF491.0
aa(lp57
F37.0
aF27.0
aF177.0
aF412.0
aaaF0.988
aa(lp58
(lp59
S'007893'
p60
ag4
ag5
aF375.6
aF280.8
aF417.6
aF340.6
aa(lp61
(lp62
F376.0
aF279.0
aF460.0
aF355.0
aaaF0.988
aa(lp63
(lp64
S'006582'
p65
ag4
ag5
aF225.6
aF25.5
aF398.9
aF300.2
aa(lp66
(lp67
F3.0
aF11.0
aF397.0
aF375.0
aaaF0.985
aa(lp68
(lp69
S'006767'
p70
ag4
ag5
aF179.9
aF239.9
aF252.7
aF324.4
aa(lp71
aF0.985
aa(lp72
(lp73
S'000561'
p74
ag4
ag5
aF36.2
aF119.8
aF142.4
aF292.6
aa(lp75
(lp76
F145.0
aF167.0
aF311.0
aF491.0
aa(lp77
F37.0
aF27.0
aF177.0
aF412.0
aaaF0.984
aa(lp78
(lp79
S'004861'
p80
ag4
ag5
aF94.0
aF11.3
aF363.2
aF336.8
aa(lp81
(lp82
F113.0
aF53.0
aF320.0
aF494.0
aaaF0.981
aa(lp83
(lp84
S'003598'
p85
ag4
ag5
aF105.0
aF36.4
aF307.9
aF347.7
aa(lp86
(lp87
F82.0
aF11.0
aF280.0
aF141.0
aa(lp88
F55.0
aF150.0
aF143.0
aF361.0
aa(lp89
F10.0
aF266.0
aF74.0
aF368.0
aa(lp90
F82.0
aF114.0
aF290.0
aF266.0
aa(lp91
F160.0
aF267.0
aF327.0
aF370.0
aa(lp92
F99.0
aF34.0
aF486.0
aF364.0
aa(lp93
F314.0
aF45.0
aF429.0
aF146.0
aaaF0.981
aa(lp94
(lp95
S'000199'
p96
ag4
ag5
aF225.8
aF45.4
aF394.3
aF249.3
aa(lp97
(lp98
F82.0
aF68.0
aF383.0
aF270.0
aaaF0.981
aa(lp99
(lp100
S'008746'
p101
ag4
ag5
aF106.0
aF101.4
aF363.7
aF366.7
aa(lp102
(lp103
F136.0
aF210.0
aF317.0
aF372.0
aa(lp104
F206.0
aF84.0
aF380.0
aF248.0
aa(lp105
F140.0
aF74.0
aF202.0
aF225.0
aa(lp106
F47.0
aF64.0
aF112.0
aF252.0
aaaF0.98
aa(lp107
(lp108
S'006936'
p109
ag4
ag5
aF421.0
aF199.2
aF446.2
aF234.1
aa(lp110
aF0.978
aa(lp111
(lp112
S'009893'
p113
ag4
ag5
aF113.0
aF127.9
aF173.2
aF214.2
aa(lp114
(lp115
F127.0
aF134.0
aF164.0
aF201.0
aa(lp116
F212.0
aF126.0
aF248.0
aF198.0
aaaF0.972
aa(lp117
(lp118
S'006268'
p119
ag4
ag5
aF43.1
aF110.2
aF351.5
aF460.7
aa(lp120
(lp121
F64.0
aF127.0
aF247.0
aF355.0
aaaF0.97
aa(lp122
(lp123
S'008746'
p124
ag4
ag5
aF150.8
aF70.8
aF199.7
aF156.2
aa(lp125
(lp126
F136.0
aF210.0
aF317.0
aF372.0
aa(lp127
F206.0
aF84.0
aF380.0
aF248.0
aa(lp128
F140.0
aF74.0
aF202.0
aF225.0
aa(lp129
F47.0
aF64.0
aF112.0
aF252.0
aaaF0.957
aa(lp130
(lp131
S'004583'
p132
ag4
ag5
aF299.1
aF195.4
aF347.9
aF248.8
aa(lp133
(lp134
F303.0
aF195.0
aF337.0
aF280.0
aaaF0.955
aa(lp135
(lp136
S'004373'
p137
ag4
ag5
aF96.7
aF163.5
aF315.2
aF302.1
aa(lp138
(lp139
F337.0
aF159.0
aF497.0
aF234.0
aa(lp140
F337.0
aF205.0
aF439.0
aF270.0
aa(lp141
F100.0
aF174.0
aF322.0
aF239.0
aa(lp142
F231.0
aF156.0
aF286.0
aF196.0
aa(lp143
F119.0
aF218.0
aF231.0
aF301.0
aa(lp144
F7.0
aF253.0
aF118.0
aF340.0
aaaF0.949
aa(lp145
(lp146
S'007716'
p147
ag4
ag5
aF128.0
aF134.1
aF203.6
aF174.3
aa(lp148
aF0.947
aa(lp149
(lp150
S'005883'
p151
ag4
ag5
aF48.1
aF83.3
aF363.0
aF444.9
aa(lp152
(lp153
F272.0
aF34.0
aF354.0
aF128.0
aa(lp154
F63.0
aF90.0
aF167.0
aF205.0
aa(lp155
F78.0
aF286.0
aF297.0
aF450.0
aa(lp156
F2.0
aF249.0
aF145.0
aF358.0
aa(lp157
F128.0
aF150.0
aF181.0
aF256.0
aa(lp158
F247.0
aF139.0
aF374.0
aF248.0
aa(lp159
F248.0
aF201.0
aF361.0
aF320.0
aa(lp160
F208.0
aF155.0
aF266.0
aF246.0
aa(lp161
F133.0
aF128.0
aF248.0
aF343.0
aa(lp162
F365.0
aF58.0
aF375.0
aF79.0
aaaF0.94
aa(lp163
(lp164
S'008746'
p165
ag4
ag5
aF147.1
aF76.9
aF438.9
aF187.5
aa(lp166
(lp167
F136.0
aF210.0
aF317.0
aF372.0
aa(lp168
F206.0
aF84.0
aF380.0
aF248.0
aa(lp169
F140.0
aF74.0
aF202.0
aF225.0
aa(lp170
F47.0
aF64.0
aF112.0
aF252.0
aaaF0.939
aa(lp171
(lp172
S'008786'
p173
ag4
ag5
aF118.0
aF164.3
aF149.4
aF233.8
aa(lp174
aF0.932
aa(lp175
(lp176
S'005502'
p177
ag4
ag5
aF28.4
aF132.2
aF233.6
aF356.1
aa(lp178
(lp179
F182.0
aF127.0
aF238.0
aF295.0
aa(lp180
F224.0
aF129.0
aF270.0
aF295.0
aa(lp181
F248.0
aF138.0
aF315.0
aF325.0
aaaF0.932
aa(lp182
(lp183
S'008780'
p184
ag4
ag5
aF382.5
aF126.0
aF415.9
aF186.9
aa(lp185
(lp186
F388.0
aF124.0
aF424.0
aF220.0
aa(lp187
F418.0
aF40.0
aF438.0
aF61.0
aa(lp188
F390.0
aF29.0
aF406.0
aF57.0
aa(lp189
F341.0
aF13.0
aF360.0
aF42.0
aa(lp190
F330.0
aF8.0
aF342.0
aF26.0
aaaF0.93
aa(lp191
(lp192
S'002486'
p193
ag4
ag5
aF235.3
aF120.0
aF298.9
aF148.0
aa(lp194
(lp195
F5.0
aF122.0
aF53.0
aF170.0
aa(lp196
F109.0
aF93.0
aF175.0
aF133.0
aa(lp197
F150.0
aF110.0
aF229.0
aF154.0
aa(lp198
F233.0
aF100.0
aF306.0
aF144.0
aa(lp199
F394.0
aF124.0
aF474.0
aF168.0
aa(lp200
F311.0
aF144.0
aF396.0
aF195.0
aa(lp201
F110.0
aF153.0
aF216.0
aF215.0
aaaF0.923
aa(lp202
(lp203
S'007545'
p204
ag4
ag5
aF224.4
aF228.8
aF314.0
aF345.7
aa(lp205
(lp206
F231.0
aF235.0
aF311.0
aF292.0
aaaF0.916
aa(lp207
(lp208
S'009608'
p209
ag4
ag5
aF164.1
aF68.9
aF280.9
aF137.0
aa(lp210
(lp211
F160.0
aF73.0
aF277.0
aF221.0
aaaF0.909
aa(lp212
(lp213
S'001399'
p214
ag4
ag5
aF99.7
aF284.3
aF153.2
aF313.9
aa(lp215
(lp216
F122.0
aF206.0
aF180.0
aF248.0
aa(lp217
F182.0
aF188.0
aF246.0
aF233.0
aaaF0.907
aa(lp218
(lp219
S'000960'
p220
ag4
ag5
aF330.3
aF299.8
aF455.9
aF365.7
aa(lp221
(lp222
F93.0
aF109.0
aF203.0
aF252.0
aa(lp223
F338.0
aF109.0
aF454.0
aF224.0
aa(lp224
F192.0
aF275.0
aF356.0
aF367.0
aa(lp225
F75.0
aF293.0
aF205.0
aF370.0
aa(lp226
F358.0
aF315.0
aF477.0
aF389.0
aa(lp227
F351.0
aF304.0
aF401.0
aF350.0
aa(lp228
F15.0
aF44.0
aF139.0
aF90.0
aa(lp229
F10.0
aF163.0
aF97.0
aF270.0
aaaF0.902
aa(lp230
(lp231
S'000960'
p232
ag4
ag5
aF289.2
aF19.8
aF444.4
aF334.0
aa(lp233
(lp234
F93.0
aF109.0
aF203.0
aF252.0
aa(lp235
F338.0
aF109.0
aF454.0
aF224.0
aa(lp236
F192.0
aF275.0
aF356.0
aF367.0
aa(lp237
F75.0
aF293.0
aF205.0
aF370.0
aa(lp238
F358.0
aF315.0
aF477.0
aF389.0
aa(lp239
F351.0
aF304.0
aF401.0
aF350.0
aa(lp240
F15.0
aF44.0
aF139.0
aF90.0
aa(lp241
F10.0
aF163.0
aF97.0
aF270.0
aaaF0.901
aa(lp242
(lp243
S'004614'
p244
ag4
ag5
aF108.6
aF93.2
aF470.1
aF347.9
aa(lp245
(lp246
F136.0
aF146.0
aF307.0
aF293.0
aaaF0.899
aa(lp247
(lp248
S'001737'
p249
ag4
ag5
aF91.0
aF315.0
aF129.2
aF338.7
aa(lp250
aF0.898
aa(lp251
(lp252
S'001208'
p253
ag4
ag5
aF3.1
aF69.0
aF132.2
aF262.2
aa(lp254
aF0.896
aa(lp255
(lp256
S'007741'
p257
ag4
ag5
aF218.2
aF175.3
aF251.5
aF232.4
aa(lp258
(lp259
F45.0
aF254.0
aF67.0
aF289.0
aa(lp260
F156.0
aF231.0
aF174.0
aF255.0
aa(lp261
F87.0
aF124.0
aF119.0
aF152.0
aa(lp262
F66.0
aF108.0
aF100.0
aF121.0
aa(lp263
F242.0
aF66.0
aF295.0
aF113.0
aa(lp264
F150.0
aF144.0
aF192.0
aF192.0
aa(lp265
F221.0
aF178.0
aF316.0
aF227.0
aa(lp266
F316.0
aF198.0
aF416.0
aF253.0
aa(lp267
F354.0
aF149.0
aF390.0
aF174.0
aa(lp268
F253.0
aF174.0
aF299.0
aF199.0
aa(lp269
F279.0
aF144.0
aF293.0
aF167.0
aa(lp270
F400.0
aF66.0
aF421.0
aF79.0
aa(lp271
F320.0
aF64.0
aF341.0
aF78.0
aa(lp272
F312.0
aF75.0
aF338.0
aF91.0
aa(lp273
F207.0
aF78.0
aF235.0
aF95.0
aa(lp274
F19.0
aF61.0
aF39.0
aF75.0
aa(lp275
F440.0
aF71.0
aF454.0
aF80.0
aa(lp276
F419.0
aF78.0
aF433.0
aF89.0
aa(lp277
F208.0
aF65.0
aF224.0
aF76.0
aa(lp278
F183.0
aF60.0
aF197.0
aF71.0
aa(lp279
F47.0
aF58.0
aF63.0
aF69.0
aa(lp280
F100.0
aF55.0
aF115.0
aF68.0
aa(lp281
F344.0
aF110.0
aF354.0
aF124.0
aaaF0.894
aa(lp282
(lp283
S'000568'
p284
ag4
ag5
aF84.0
aF133.4
aF333.5
aF260.2
aa(lp285
(lp286
F95.0
aF53.0
aF380.0
aF262.0
aaaF0.89
aa(lp287
(lp288
S'001275'
p289
ag4
ag5
aF145.1
aF128.9
aF176.6
aF173.1
aa(lp290
(lp291
F171.0
aF124.0
aF244.0
aF280.0
aa(lp292
F322.0
aF206.0
aF394.0
aF276.0
aa(lp293
F216.0
aF144.0
aF286.0
aF227.0
aa(lp294
F288.0
aF147.0
aF326.0
aF213.0
aa(lp295
F89.0
aF174.0
aF122.0
aF236.0
aa(lp296
F110.0
aF170.0
aF134.0
aF214.0
aa(lp297
F68.0
aF133.0
aF101.0
aF181.0
aa(lp298
F61.0
aF114.0
aF82.0
aF151.0
aa(lp299
F16.0
aF124.0
aF38.0
aF163.0
aa(lp300
F7.0
aF90.0
aF28.0
aF120.0
aa(lp301
F27.0
aF87.0
aF55.0
aF125.0
aa(lp302
F95.0
aF96.0
aF116.0
aF138.0
aa(lp303
F109.0
aF74.0
aF135.0
aF110.0
aa(lp304
F138.0
aF78.0
aF156.0
aF115.0
aa(lp305
F178.0
aF76.0
aF196.0
aF119.0
aa(lp306
F249.0
aF85.0
aF273.0
aF117.0
aa(lp307
F259.0
aF103.0
aF278.0
aF137.0
aa(lp308
F300.0
aF95.0
aF323.0
aF135.0
aa(lp309
F323.0
aF127.0
aF347.0
aF165.0
aa(lp310
F318.0
aF111.0
aF337.0
aF140.0
aa(lp311
F256.0
aF129.0
aF299.0
aF173.0
aa(lp312
F399.0
aF112.0
aF421.0
aF156.0
aa(lp313
F374.0
aF152.0
aF400.0
aF197.0
aa(lp314
F373.0
aF135.0
aF390.0
aF170.0
aa(lp315
F424.0
aF138.0
aF446.0
aF174.0
aa(lp316
F463.0
aF149.0
aF493.0
aF201.0
aa(lp317
F345.0
aF121.0
aF380.0
aF165.0
aa(lp318
F203.0
aF73.0
aF238.0
aF106.0
aa(lp319
F482.0
aF244.0
aF500.0
aF269.0
aa(lp320
F440.0
aF171.0
aF475.0
aF202.0
aa(lp321
F320.0
aF160.0
aF339.0
aF204.0
aa(lp322
F327.0
aF96.0
aF356.0
aF123.0
aaaF0.889
aa(lp323
(lp324
S'004415'
p325
ag4
ag5
aF226.2
aF121.6
aF447.1
aF210.0
aa(lp326
(lp327
F28.0
aF129.0
aF429.0
aF217.0
aaaF0.887
aa(lp328
(lp329
S'009301'
p330
ag4
ag5
aF54.2
aF135.2
aF182.6
aF362.6
aa(lp331
aF0.878
aa(lp332
(lp333
S'004413'
p334
ag4
aS'err_repeat'
p335
aF199.3
aF23.6
aF460.6
aF333.0
aa(lp336
(lp337
F58.0
aF6.0
aF466.0
aF333.0
aaaF0.874
aa(lp338
(lp339
S'007512'
p340
ag4
ag5
aF43.3
aF150.2
aF283.6
aF284.7
aa(lp341
(lp342
F71.0
aF154.0
aF247.0
aF234.0
aa(lp343
F293.0
aF127.0
aF390.0
aF305.0
aaaF0.861
aa(lp344
(lp345
S'003598'
p346
ag4
ag5
aF215.4
aF154.3
aF297.1
aF229.8
aa(lp347
(lp348
F82.0
aF11.0
aF280.0
aF141.0
aa(lp349
F55.0
aF150.0
aF143.0
aF361.0
aa(lp350
F10.0
aF266.0
aF74.0
aF368.0
aa(lp351
F82.0
aF114.0
aF290.0
aF266.0
aa(lp352
F160.0
aF267.0
aF327.0
aF370.0
aa(lp353
F99.0
aF34.0
aF486.0
aF364.0
aa(lp354
F314.0
aF45.0
aF429.0
aF146.0
aaaF0.859
aa(lp355
(lp356
S'000568'
p357
ag4
ag5
aF167.4
aF40.4
aF421.7
aF205.6
aa(lp358
(lp359
F95.0
aF53.0
aF380.0
aF262.0
aaaF0.859
aa(lp360
(lp361
S'004861'
p362
ag4
ag5
aF104.3
aF48.5
aF228.2
aF228.5
aa(lp363
(lp364
F113.0
aF53.0
aF320.0
aF494.0
aaaF0.854
aa(lp365
(lp366
S'007426'
p367
ag4
ag5
aF15.1
aF68.9
aF273.7
aF322.7
aa(lp368
(lp369
F119.0
aF62.0
aF488.0
aF330.0
aa(lp370
F1.0
aF160.0
aF44.0
aF333.0
aaaF0.851
aa(lp371
(lp372
S'002630'
p373
ag4
ag5
aF314.5
aF79.1
aF424.4
aF201.8
aa(lp374
(lp375
F74.0
aF41.0
aF266.0
aF335.0
aa(lp376
F317.0
aF76.0
aF479.0
aF335.0
aa(lp377
F420.0
aF99.0
aF500.0
aF182.0
aaaF0.85
aa(lp378
(lp379
S'000852'
p380
ag4
ag5
aF27.8
aF34.8
aF289.6
aF197.6
aa(lp381
(lp382
F249.0
aF12.0
aF463.0
aF113.0
aa(lp383
F252.0
aF91.0
aF475.0
aF152.0
aa(lp384
F23.0
aF20.0
aF238.0
aF116.0
aa(lp385
F114.0
aF70.0
aF312.0
aF214.0
aa(lp386
F14.0
aF111.0
aF213.0
aF208.0
aaaF0.848
aa(lp387
(lp388
S'000681'
p389
ag4
ag5
aF193.6
aF125.2
aF238.3
aF178.9
aa(lp390
(lp391
F127.0
aF130.0
aF246.0
aF227.0
aaaF0.845
aa(lp392
(lp393
S'008015'
p394
ag4
ag5
aF9.1
aF43.9
aF295.9
aF354.7
aa(lp395
(lp396
F206.0
aF96.0
aF310.0
aF273.0
aaaF0.839
aa(lp397
(lp398
S'001939'
p399
ag4
ag5
aF118.7
aF38.7
aF409.5
aF249.0
aa(lp400
aF0.833
aa(lp401
(lp402
S'006650'
p403
ag4
ag5
aF168.4
aF100.3
aF500.0
aF275.2
aa(lp404
(lp405
F195.0
aF116.0
aF346.0
aF291.0
aaaF0.829
aa(lp406
(lp407
S'007326'
p408
ag4
ag5
aF18.2
aF27.6
aF364.1
aF332.5
aa(lp409
(lp410
F160.0
aF81.0
aF369.0
aF198.0
aaaF0.826
aa(lp411
(lp412
S'004461'
p413
ag4
ag5
aF276.6
aF39.4
aF500.0
aF270.9
aa(lp414
(lp415
F11.0
aF36.0
aF482.0
aF330.0
aaaF0.825
aa(lp416
(lp417
S'004059'
p418
ag4
ag5
aF262.1
aF222.3
aF311.8
aF259.4
aa(lp419
(lp420
F179.0
aF198.0
aF212.0
aF272.0
aa(lp421
F216.0
aF161.0
aF248.0
aF216.0
aa(lp422
F185.0
aF133.0
aF234.0
aF191.0
aa(lp423
F176.0
aF170.0
aF211.0
aF208.0
aa(lp424
F252.0
aF201.0
aF332.0
aF259.0
aa(lp425
F226.0
aF43.0
aF251.0
aF71.0
aa(lp426
F251.0
aF50.0
aF275.0
aF85.0
aa(lp427
F288.0
aF81.0
aF306.0
aF120.0
aa(lp428
F304.0
aF61.0
aF336.0
aF93.0
aaaF0.824
aa(lp429
(lp430
S'006379'
p431
ag4
ag5
aF221.8
aF114.5
aF294.8
aF194.9
aa(lp432
(lp433
F231.0
aF118.0
aF440.0
aF301.0
aa(lp434
F73.0
aF165.0
aF294.0
aF277.0
aa(lp435
F180.0
aF142.0
aF242.0
aF220.0
aaaF0.819
aa(lp436
(lp437
S'006861'
p438
ag4
ag5
aF319.1
aF119.1
aF349.9
aF160.5
aa(lp439
aF0.818
aa(lp440
(lp441
S'006054'
p442
ag4
ag5
aF44.5
aF60.9
aF403.6
aF299.6
aa(lp443
(lp444
F152.0
aF86.0
aF261.0
aF241.0
aa(lp445
F244.0
aF121.0
aF296.0
aF274.0
aa(lp446
F70.0
aF266.0
aF172.0
aF333.0
aa(lp447
F442.0
aF294.0
aF486.0
aF333.0
aaaF0.816
aa(lp448
(lp449
S'003148'
p450
ag4
ag5
aF4.8
aF212.5
aF103.4
aF267.0
aa(lp451
(lp452
F281.0
aF120.0
aF333.0
aF226.0
aa(lp453
F236.0
aF219.0
aF420.0
aF374.0
aa(lp454
F104.0
aF206.0
aF288.0
aF366.0
aa(lp455
F355.0
aF70.0
aF463.0
aF145.0
aa(lp456
F1.0
aF184.0
aF118.0
aF300.0
aa(lp457
F37.0
aF110.0
aF171.0
aF225.0
aa(lp458
F342.0
aF96.0
aF454.0
aF227.0
aaaF0.808
aa(lp459
(lp460
S'003598'
p461
ag4
ag5
aF131.4
aF48.3
aF289.6
aF153.4
aa(lp462
(lp463
F82.0
aF11.0
aF280.0
aF141.0
aa(lp464
F55.0
aF150.0
aF143.0
aF361.0
aa(lp465
F10.0
aF266.0
aF74.0
aF368.0
aa(lp466
F82.0
aF114.0
aF290.0
aF266.0
aa(lp467
F160.0
aF267.0
aF327.0
aF370.0
aa(lp468
F99.0
aF34.0
aF486.0
aF364.0
aa(lp469
F314.0
aF45.0
aF429.0
aF146.0
aaaF0.807
aa(lp470
(lp471
S'009320'
p472
ag4
ag5
aF439.4
aF256.9
aF478.4
aF285.7
aa(lp473
aF0.801
aa(lp474
(lp475
S'001939'
p476
ag4
ag5
aF110.8
aF86.9
aF236.5
aF270.0
aa(lp477
aF0.797
aa(lp478
(lp479
S'000561'
p480
ag4
ag5
aF23.0
aF124.6
aF279.5
aF374.6
aa(lp481
(lp482
F145.0
aF167.0
aF311.0
aF491.0
aa(lp483
F37.0
aF27.0
aF177.0
aF412.0
aaaF0.778
aa(lp484
(lp485
S'008369'
p486
ag4
ag5
aF1.0
aF14.2
aF291.4
aF219.4
aa(lp487
aF0.77
aa(lp488
(lp489
S'001631'
p490
ag4
ag5
aF29.8
aF338.8
aF75.0
aF371.6
aa(lp491
aF0.767
aa(lp492
(lp493
S'007127'
p494
ag4
ag5
aF110.0
aF197.3
aF133.4
aF237.0
aa(lp495
aF0.758
aa(lp496
(lp497
S'001961'
p498
ag4
ag5
aF390.3
aF138.2
aF417.7
aF197.9
aa(lp499
aF0.756
aa(lp500
(lp501
S'005621'
p502
ag4
ag5
aF102.6
aF107.1
aF451.0
aF332.6
aa(lp503
aF0.756
aa(lp504
(lp505
S'005462'
p506
ag4
ag5
aF11.3
aF107.9
aF246.3
aF470.4
aa(lp507
aF0.747
aa(lp508
(lp509
S'005540'
p510
ag4
ag5
aF371.5
aF142.1
aF408.2
aF187.5
aa(lp511
aF0.747
aa(lp512
(lp513
S'008480'
p514
ag4
ag5
aF159.8
aF74.9
aF203.6
aF122.2
aa(lp515
(lp516
F115.0
aF72.0
aF207.0
aF137.0
aaaF0.74
aa(lp517
(lp518
S'008157'
p519
ag4
ag5
aF9.6
aF30.5
aF222.3
aF282.2
aa(lp520
aF0.73
aa(lp521
(lp522
S'006315'
p523
ag4
ag5
aF29.0
aF43.8
aF383.1
aF354.2
aa(lp524
aF0.727
aa(lp525
(lp526
S'000960'
p527
ag4
ag5
aF98.9
aF167.1
aF441.2
aF382.7
aa(lp528
(lp529
F93.0
aF109.0
aF203.0
aF252.0
aa(lp530
F338.0
aF109.0
aF454.0
aF224.0
aa(lp531
F192.0
aF275.0
aF356.0
aF367.0
aa(lp532
F75.0
aF293.0
aF205.0
aF370.0
aa(lp533
F358.0
aF315.0
aF477.0
aF389.0
aa(lp534
F351.0
aF304.0
aF401.0
aF350.0
aa(lp535
F15.0
aF44.0
aF139.0
aF90.0
aa(lp536
F10.0
aF163.0
aF97.0
aF270.0
aaaF0.724
aa(lp537
(lp538
S'002038'
p539
ag4
ag5
aF108.9
aF414.7
aF236.6
aF451.4
aa(lp540
aF0.723
aa(lp541
(lp542
S'007181'
p543
ag4
ag5
aF102.1
aF190.5
aF191.3
aF284.6
aa(lp544
aF0.707
aa(lp545
(lp546
S'009893'
p547
ag4
ag5
aF93.6
aF105.4
aF193.4
aF314.4
aa(lp548
(lp549
F127.0
aF134.0
aF164.0
aF201.0
aa(lp550
F212.0
aF126.0
aF248.0
aF198.0
aaaF0.707
aa(lp551
(lp552
S'001671'
p553
ag4
ag5
aF210.2
aF146.0
aF247.3
aF206.1
aa(lp554
aF0.704
aa(lp555
(lp556
S'000561'
p557
ag4
ag5
aF226.8
aF166.3
aF314.9
aF324.7
aa(lp558
(lp559
F145.0
aF167.0
aF311.0
aF491.0
aa(lp560
F37.0
aF27.0
aF177.0
aF412.0
aaaF0.701
aa(lp561
(lp562
S'008863'
p563
ag4
ag5
aF221.9
aF198.7
aF249.1
aF243.2
aa(lp564
aF0.69
aa(lp565
(lp566
S'000708'
p567
ag4
ag5
aF185.7
aF3.1
aF319.1
aF141.7
aa(lp568
(lp569
F351.0
aF183.0
aF490.0
aF369.0
aaaF0.688
aa(lp570
(lp571
S'008418'
p572
ag4
ag5
aF378.7
aF46.6
aF408.1
aF76.1
aa(lp573
aF0.678
aa(lp574
(lp575
S'008565'
p576
ag4
ag5
aF51.4
aF28.9
aF344.9
aF491.4
aa(lp577
(lp578
F63.0
aF131.0
aF181.0
aF456.0
aaaF0.675
aa(lp579
(lp580
S'007269'
p581
ag4
ag5
aF302.0
aF134.3
aF407.0
aF196.1
aa(lp582
(lp583
F195.0
aF172.0
aF402.0
aF248.0
aa(lp584
F216.0
aF139.0
aF408.0
aF213.0
aa(lp585
F134.0
aF75.0
aF288.0
aF152.0
aaaF0.674
aa(lp586
(lp587
S'008028'
p588
ag4
ag5
aF6.9
aF109.4
aF332.6
aF350.3
aa(lp589
(lp590
F272.0
aF175.0
aF359.0
aF252.0
aa(lp591
F83.0
aF121.0
aF245.0
aF253.0
aaaF0.673
aa(lp592
(lp593
S'009572'
p594
ag4
ag5
aF308.3
aF93.6
aF452.0
aF156.2
aa(lp595
aF0.665
aa(lp596
(lp597
S'005525'
p598
ag4
ag5
aF346.8
aF120.2
aF428.4
aF190.5
aa(lp599
aF0.651
aa(lp600
(lp601
S'005802'
p602
ag4
ag5
aF336.0
aF360.0
aF375.9
aF410.2
aa(lp603
(lp604
F94.0
aF54.0
aF378.0
aF306.0
aaaF0.647
aa(lp605
(lp606
S'000557'
p607
ag4
ag5
aF99.3
aF146.9
aF331.7
aF359.7
aa(lp608
(lp609
F51.0
aF138.0
aF167.0
aF213.0
aaaF0.625
aa(lp610
(lp611
S'009390'
p612
ag4
ag5
aF31.2
aF188.3
aF200.4
aF313.2
aa(lp613
(lp614
F6.0
aF19.0
aF406.0
aF328.0
aaaF0.622
aa(lp615
(lp616
S'008123'
p617
ag4
ag5
aF314.8
aF51.8
aF376.2
aF160.5
aa(lp618
(lp619
F323.0
aF109.0
aF374.0
aF149.0
aaaF0.621
aa(lp620
(lp621
S'007444'
p622
ag4
ag5
aF148.8
aF251.1
aF289.9
aF461.1
aa(lp623
aF0.618
aa(lp624
(lp625
S'004116'
p626
ag4
ag5
aF102.4
aF118.3
aF136.8
aF189.2
aa(lp627
aF0.609
aa(lp628
(lp629
S'009775'
p630
ag4
ag335
aF7.3
aF161.3
aF162.8
aF418.9
aa(lp631
(lp632
F39.0
aF63.0
aF173.0
aF430.0
aaaF0.606
aa(lp633
(lp634
S'004752'
p635
ag4
ag5
aF107.0
aF74.8
aF181.2
aF133.8
aa(lp636
aF0.603
aa(lp637
(lp638
S'008746'
p639
ag4
ag5
aF209.5
aF207.6
aF316.3
aF329.5
aa(lp640
(lp641
F136.0
aF210.0
aF317.0
aF372.0
aa(lp642
F206.0
aF84.0
aF380.0
aF248.0
aa(lp643
F140.0
aF74.0
aF202.0
aF225.0
aa(lp644
F47.0
aF64.0
aF112.0
aF252.0
aaaF0.601
aa(lp645
(lp646
S'006568'
p647
ag4
ag5
aF5.1
aF62.7
aF297.6
aF490.1
aa(lp648
aF0.598
aa(lp649
(lp650
S'007539'
p651
ag4
ag5
aF293.2
aF75.7
aF462.0
aF263.5
aa(lp652
(lp653
F1.0
aF68.0
aF465.0
aF287.0
aaaF0.594
aa(lp654
(lp655
S'000326'
p656
ag4
ag5
aF106.0
aF91.7
aF351.3
aF366.1
aa(lp657
(lp658
F189.0
aF98.0
aF295.0
aF236.0
aaaF0.589
aa(lp659
(lp660
S'003659'
p661
ag4
ag5
aF376.7
aF165.6
aF463.7
aF231.6
aa(lp662
aF0.578
aa(lp663
(lp664
S'009046'
p665
ag4
ag5
aF342.8
aF188.0
aF414.1
aF290.5
aa(lp666
aF0.577
aa(lp667
(lp668
S'001075'
p669
ag4
ag5
aF53.6
aF163.5
aF116.0
aF278.2
aa(lp670
aF0.571
aa(lp671
(lp672
S'000852'
p673
ag4
ag5
aF249.4
aF49.1
aF455.8
aF139.0
aa(lp674
(lp675
F249.0
aF12.0
aF463.0
aF113.0
aa(lp676
F252.0
aF91.0
aF475.0
aF152.0
aa(lp677
F23.0
aF20.0
aF238.0
aF116.0
aa(lp678
F114.0
aF70.0
aF312.0
aF214.0
aa(lp679
F14.0
aF111.0
aF213.0
aF208.0
aaaF0.566
aa(lp680
(lp681
S'009642'
p682
ag4
ag5
aF19.0
aF30.3
aF353.0
aF375.0
aa(lp683
(lp684
F164.0
aF183.0
aF209.0
aF234.0
aaaF0.558
aa(lp685
(lp686
S'000846'
p687
ag4
ag5
aF170.2
aF103.1
aF203.0
aF134.8
aa(lp688
aF0.555
aa(lp689
(lp690
S'005106'
p691
ag4
ag5
aF174.9
aF207.6
aF230.3
aF247.9
aa(lp692
aF0.552
aa(lp693
(lp694
S'002486'
p695
ag4
ag5
aF369.1
aF144.6
aF395.5
aF190.9
aa(lp696
(lp697
F5.0
aF122.0
aF53.0
aF170.0
aa(lp698
F109.0
aF93.0
aF175.0
aF133.0
aa(lp699
F150.0
aF110.0
aF229.0
aF154.0
aa(lp700
F233.0
aF100.0
aF306.0
aF144.0
aa(lp701
F394.0
aF124.0
aF474.0
aF168.0
aa(lp702
F311.0
aF144.0
aF396.0
aF195.0
aa(lp703
F110.0
aF153.0
aF216.0
aF215.0
aaaF0.545
aa(lp704
(lp705
S'000600'
p706
ag4
ag5
aF42.0
aF22.8
aF324.3
aF251.0
aa(lp707
aF0.544
aa(lp708
(lp709
S'001984'
p710
ag4
ag5
aF11.9
aF210.5
aF274.4
aF370.4
aa(lp711
aF0.54
aa(lp712
(lp713
S'000127'
p714
ag4
ag5
aF74.5
aF132.9
aF462.6
aF362.0
aa(lp715
(lp716
F338.0
aF155.0
aF427.0
aF234.0
aa(lp717
F312.0
aF192.0
aF408.0
aF284.0
aa(lp718
F238.0
aF215.0
aF341.0
aF318.0
aa(lp719
F173.0
aF226.0
aF231.0
aF375.0
aaaF0.54
aa(lp720
(lp721
S'008984'
p722
ag4
ag5
aF183.3
aF1.0
aF331.2
aF201.4
aa(lp723
(lp724
F147.0
aF220.0
aF188.0
aF294.0
aa(lp725
F241.0
aF448.0
aF293.0
aF500.0
aaaF0.533
aa(lp726
(lp727
S'005532'
p728
ag4
ag5
aF187.4
aF146.2
aF212.3
aF191.4
aa(lp729
(lp730
F148.0
aF199.0
aF299.0
aF279.0
aa(lp731
F311.0
aF146.0
aF372.0
aF227.0
aa(lp732
F1.0
aF123.0
aF16.0
aF171.0
aa(lp733
F459.0
aF290.0
aF500.0
aF368.0
aa(lp734
F240.0
aF117.0
aF294.0
aF181.0
aa(lp735
F185.0
aF142.0
aF237.0
aF213.0
aa(lp736
F449.0
aF96.0
aF471.0
aF116.0
aa(lp737
F254.0
aF99.0
aF278.0
aF115.0
aaaF0.532
aa(lp738
(lp739
S'004277'
p740
ag4
ag5
aF218.4
aF315.1
aF308.8
aF446.6
aa(lp741
aF0.526
aa(lp742
(lp743
S'001740'
p744
ag4
ag5
aF31.9
aF172.0
aF249.8
aF330.9
aa(lp745
aF0.525
aa(lp746
(lp747
S'009383'
p748
ag4
ag5
aF1.0
aF1.0
aF488.8
aF355.7
aa(lp749
aF0.514
aa(lp750
(lp751
S'005667'
p752
ag4
ag5
aF60.5
aF190.8
aF316.8
aF281.3
aa(lp753
(lp754
F69.0
aF183.0
aF483.0
aF298.0
aa(lp755
F252.0
aF105.0
aF330.0
aF143.0
aa(lp756
F246.0
aF139.0
aF267.0
aF171.0
aa(lp757
F459.0
aF153.0
aF487.0
aF188.0
aa(lp758
F422.0
aF143.0
aF451.0
aF175.0
aa(lp759
F401.0
aF132.0
aF424.0
aF157.0
aa(lp760
F402.0
aF94.0
aF430.0
aF118.0
aa(lp761
F128.0
aF50.0
aF181.0
aF79.0
aa(lp762
F250.0
aF59.0
aF280.0
aF89.0
aa(lp763
F1.0
aF252.0
aF160.0
aF324.0
aaaF0.494
aa(lp764
a(lp765
a(lp766
a(lp767
a(lp768
a(lp769
a(lp770
a(lp771
a(lp772
a(lp773
a(lp774
a(lp775
a(lp776
a(lp777
a(lp778
a(lp779
a(lp780
a(lp781
a(lp782
a(lp783
a(lp784
a(lp785
a(lp786
a(lp787
a(lp788
a(lp789
a(lp790
a(lp791
a(lp792
a(lp793
a(lp794
a(lp795
a(lp796
a(lp797
a(lp798
a(lp799
a(lp800
a(lp801
a(lp802
a(lp803
a(lp804
a(lp805
a(lp806
a(lp807
a(lp808
a(lp809
a(lp810
a(lp811
a(lp812
a(lp813
a(lp814
a(lp815
a(lp816
a(lp817
a(lp818
a(lp819
a(lp820
a(lp821
a(lp822
a(lp823
a(lp824
a(lp825
a(lp826
a(lp827
a(lp828
a(lp829
a(lp830
a(lp831
a(lp832
a(lp833
a(lp834
a(lp835
a(lp836
a(lp837
a(lp838
a(lp839
a(lp840
a(lp841
a(lp842
a(lp843
a(lp844
a(lp845
a(lp846
a(lp847
a(lp848
a(lp849
a(lp850
a(lp851
a(lp852
a(lp853
a(lp854
a(lp855
a(lp856
a(lp857
a(lp858
a(lp859
a(lp860
a(lp861
a(lp862
a(lp863
a(lp864
a(lp865
a(lp866
a(lp867
a(lp868
a(lp869
a(lp870
a(lp871
a(lp872
a(lp873
a(lp874
a(lp875
a(lp876
a(lp877
a(lp878
a(lp879
a(lp880
a(lp881
a(lp882
a(lp883
a(lp884
a(lp885
a(lp886
a(lp887
a(lp888
a(lp889
a(lp890
a(lp891
a(lp892
a(lp893
a(lp894
a(lp895
a(lp896
a(lp897
a(lp898
a(lp899
a(lp900
a(lp901
a(lp902
a(lp903
a(lp904
a(lp905
a(lp906
a(lp907
a(lp908
a(lp909
a(lp910
a(lp911
a(lp912
a(lp913
a(lp914
a(lp915
a(lp916
a(lp917
a(lp918
a(lp919
a(lp920
a(lp921
a(lp922
a(lp923
a(lp924
a(lp925
a(lp926
a(lp927
a(lp928
a(lp929
a(lp930
a(lp931
a(lp932
a(lp933
a(lp934
a(lp935
a(lp936
a(lp937
a(lp938
a(lp939
a(lp940
a(lp941
a(lp942
a(lp943
a(lp944
a(lp945
a(lp946
a(lp947
a(lp948
a(lp949
a(lp950
a(lp951
a(lp952
a(lp953
a(lp954
a(lp955
a(lp956
a(lp957
a(lp958
a(lp959
a(lp960
a(lp961
a(lp962
a(lp963
a(lp964
a(lp965
a(lp966
a(lp967
a(lp968
a(lp969
a(lp970
a(lp971
a(lp972
a(lp973
a(lp974
a(lp975
a(lp976
a(lp977
a(lp978
a(lp979
a(lp980
a(lp981
a(lp982
a(lp983
a(lp984
a(lp985
a(lp986
a(lp987
a(lp988
a(lp989
a(lp990
a(lp991
a(lp992
a(lp993
a(lp994
a(lp995
a(lp996
a(lp997
a(lp998
a(lp999
a(lp1000
a(lp1001
a(lp1002
a(lp1003
a(lp1004
a(lp1005
a(lp1006
a(lp1007
a(lp1008
a(lp1009
a(lp1010
a(lp1011
a(lp1012
a(lp1013
a(lp1014
a(lp1015
a(lp1016
a(lp1017
a(lp1018
a(lp1019
a(lp1020
a(lp1021
a(lp1022
a(lp1023
a(lp1024
a(lp1025
a(lp1026
a(lp1027
a(lp1028
a(lp1029
a(lp1030
a(lp1031
a(lp1032
a(lp1033
a(lp1034
a(lp1035
a(lp1036
a(lp1037
a(lp1038
a(lp1039
a(lp1040
a(lp1041
a(lp1042
a(lp1043
a(lp1044
a(lp1045
a(lp1046
a(lp1047
a(lp1048
a(lp1049
a(lp1050
a(lp1051
a(lp1052
a(lp1053
a(lp1054
a(lp1055
a(lp1056
a(lp1057
a(lp1058
a(lp1059
a(lp1060
a(lp1061
a(lp1062
a(lp1063
a(lp1064
a(lp1065
a(lp1066
a(lp1067
a(lp1068
a(lp1069
a(lp1070
a(lp1071
a(lp1072
a(lp1073
a(lp1074
a(lp1075
a(lp1076
a(lp1077
a(lp1078
a(lp1079
a(lp1080
a(lp1081
a(lp1082
a(lp1083
a(lp1084
a(lp1085
a(lp1086
a(lp1087
a(lp1088
a(lp1089
a(lp1090
a(lp1091
a(lp1092
a(lp1093
a(lp1094
a(lp1095
a(lp1096
a(lp1097
a(lp1098
a(lp1099
a(lp1100
a(lp1101
a(lp1102
a(lp1103
a(lp1104
a(lp1105
a.