(lp0
(lp1
(lp2
S'001155'
p3
aS'boat'
p4
aS'err_lowIoU'
p5
aF32.0
aF2.2
aF334.9
aF266.7
aa(lp6
(lp7
F22.0
aF134.0
aF336.0
aF308.0
aaaa(lp8
(lp9
S'002390'
p10
ag4
ag5
aF153.5
aF214.6
aF362.7
aF262.3
aa(lp11
(lp12
F157.0
aF28.0
aF393.0
aF273.0
aa(lp13
F102.0
aF247.0
aF163.0
aF269.0
aaaa(lp14
(lp15
S'005112'
p16
ag4
ag5
aF299.1
aF153.4
aF393.6
aF204.8
aa(lp17
(lp18
F103.0
aF164.0
aF171.0
aF192.0
aa(lp19
F296.0
aF183.0
aF390.0
aF204.0
aa(lp20
F32.0
aF170.0
aF81.0
aF185.0
aa(lp21
F369.0
aF175.0
aF426.0
aF190.0
aa(lp22
F146.0
aF266.0
aF255.0
aF294.0
aaaa(lp23
(lp24
S'007357'
p25
ag4
ag5
aF220.7
aF143.8
aF360.6
aF179.3
aa(lp26
(lp27
F266.0
aF154.0
aF358.0
aF181.0
aa(lp28
F220.0
aF145.0
aF295.0
aF170.0
aa(lp29
F136.0
aF154.0
aF167.0
aF176.0
aaaa(lp30
(lp31
S'008869'
p32
ag4
ag5
aF1.0
aF112.8
aF75.9
aF344.4
aa(lp33
(lp34
F217.0
aF1.0
aF483.0
aF300.0
aa(lp35
F160.0
aF1.0
aF288.0
aF276.0
aa(lp36
F196.0
aF190.0
aF486.0
aF285.0
aa(lp37
F1.0
aF291.0
aF159.0
aF375.0
aa(lp38
F1.0
aF216.0
aF65.0
aF282.0
aa(lp39
F31.0
aF245.0
aF80.0
aF283.0
aaaa(lp40
(lp41
S'000538'
p42
ag4
ag5
aF420.4
aF193.5
aF473.3
aF228.4
aa(lp43
(lp44
F419.0
aF186.0
aF500.0
aF234.0
aaaa(lp45
(lp46
S'002474'
p47
ag4
ag5
aF63.9
aF221.3
aF231.3
aF285.7
aa(lp48
(lp49
F121.0
aF102.0
aF250.0
aF262.0
aa(lp50
F85.0
aF89.0
aF212.0
aF271.0
aa(lp51
F68.0
aF114.0
aF183.0
aF283.0
aaaa(lp52
(lp53
S'002225'
p54
ag4
ag5
aF138.2
aF240.4
aF242.0
aF314.7
aa(lp55
(lp56
F81.0
aF238.0
aF460.0
aF359.0
aaaa(lp57
(lp58
S'008590'
p59
ag4
ag5
aF316.5
aF220.6
aF363.3
aF260.1
aa(lp60
(lp61
F328.0
aF228.0
aF421.0
aF324.0
aa(lp62
F424.0
aF248.0
aF461.0
aF281.0
aa(lp63
F334.0
aF213.0
aF374.0
aF251.0
aa(lp64
F318.0
aF240.0
aF358.0
aF266.0
aaaa(lp65
(lp66
S'001410'
p67
ag4
ag5
aF160.9
aF55.6
aF191.4
aF74.3
aa(lp68
(lp69
F189.0
aF46.0
aF349.0
aF259.0
aa(lp70
F33.0
aF2.0
aF98.0
aF97.0
aa(lp71
F67.0
aF20.0
aF93.0
aF39.0
aa(lp72
F160.0
aF2.0
aF194.0
aF77.0
aa(lp73
F209.0
aF1.0
aF251.0
aF34.0
aa(lp74
F238.0
aF43.0
aF262.0
aF64.0
aa(lp75
F302.0
aF65.0
aF355.0
aF94.0
aa(lp76
F364.0
aF49.0
aF421.0
aF80.0
aa(lp77
F436.0
aF32.0
aF496.0
aF63.0
aa(lp78
F390.0
aF2.0
aF433.0
aF29.0
aa(lp79
F289.0
aF1.0
aF328.0
aF26.0
aaaa(lp80
(lp81
S'001355'
p82
ag4
ag5
aF66.5
aF1.0
aF500.0
aF207.7
aa(lp83
(lp84
F68.0
aF118.0
aF500.0
aF375.0
aaaa(lp85
(lp86
S'009793'
p87
ag4
ag5
aF137.7
aF45.1
aF341.5
aF283.8
aa(lp88
(lp89
F58.0
aF80.0
aF442.0
aF352.0
aaaa(lp90
(lp91
S'001410'
p92
ag4
ag5
aF37.1
aF63.9
aF97.4
aF92.5
aa(lp93
(lp94
F189.0
aF46.0
aF349.0
aF259.0
aa(lp95
F33.0
aF2.0
aF98.0
aF97.0
aa(lp96
F67.0
aF20.0
aF93.0
aF39.0
aa(lp97
F160.0
aF2.0
aF194.0
aF77.0
aa(lp98
F209.0
aF1.0
aF251.0
aF34.0
aa(lp99
F238.0
aF43.0
aF262.0
aF64.0
aa(lp100
F302.0
aF65.0
aF355.0
aF94.0
aa(lp101
F364.0
aF49.0
aF421.0
aF80.0
aa(lp102
F436.0
aF32.0
aF496.0
aF63.0
aa(lp103
F390.0
aF2.0
aF433.0
aF29.0
aa(lp104
F289.0
aF1.0
aF328.0
aF26.0
aaaa(lp105
(lp106
S'002274'
p107
ag4
ag5
aF60.9
aF305.3
aF274.6
aF403.4
aa(lp108
(lp109
F61.0
aF66.0
aF276.0
aF406.0
aa(lp110
F17.0
aF278.0
aF57.0
aF369.0
aaaa(lp111
(lp112
S'008373'
p113
ag4
ag5
aF181.3
aF116.7
aF221.7
aF170.0
aa(lp114
(lp115
F184.0
aF153.0
aF207.0
aF173.0
aa(lp116
F291.0
aF147.0
aF352.0
aF167.0
aa(lp117
F143.0
aF118.0
aF224.0
aF165.0
aa(lp118
F87.0
aF149.0
aF138.0
aF164.0
aaaa(lp119
(lp120
S'006014'
p121
ag4
ag5
aF174.1
aF357.6
aF285.7
aF452.0
aa(lp122
(lp123
F177.0
aF20.0
aF325.0
aF454.0
aaaa(lp124
(lp125
S'007233'
p126
ag4
ag5
aF143.4
aF1.0
aF313.9
aF251.4
aa(lp127
(lp128
F28.0
aF2.0
aF500.0
aF287.0
aaaa(lp129
(lp130
S'000449'
p131
ag4
ag5
aF3.9
aF15.1
aF196.8
aF276.7
aa(lp132
(lp133
F1.0
aF1.0
aF500.0
aF298.0
aaaa(lp134
(lp135
S'008704'
p136
ag4
ag5
aF238.9
aF147.6
aF301.8
aF186.6
aa(lp137
(lp138
F238.0
aF171.0
aF288.0
aF185.0
aaaa(lp139
(lp140
S'009001'
p141
ag4
ag5
aF95.7
aF337.7
aF191.9
aF418.7
aa(lp142
(lp143
F104.0
aF66.0
aF192.0
aF422.0
aaaa(lp144
(lp145
S'000375'
p146
ag4
ag5
aF26.7
aF183.1
aF493.1
aF321.2
aa(lp147
(lp148
F3.0
aF1.0
aF489.0
aF340.0
aaaa(lp149
(lp150
S'007952'
p151
ag4
ag5
aF223.7
aF260.3
aF331.1
aF302.5
aa(lp152
(lp153
F223.0
aF138.0
aF333.0
aF303.0
aaaa(lp154
(lp155
S'002225'
p156
ag4
ag5
aF188.8
aF21.4
aF428.6
aF267.4
aa(lp157
(lp158
F81.0
aF238.0
aF460.0
aF359.0
aaaa(lp159
(lp160
S'009793'
p161
ag4
ag5
aF249.8
aF96.5
aF432.9
aF210.0
aa(lp162
(lp163
F58.0
aF80.0
aF442.0
aF352.0
aaaa(lp164
(lp165
S'008217'
p166
ag4
ag5
aF50.7
aF134.5
aF156.5
aF233.3
aa(lp167
(lp168
F44.0
aF146.0
aF337.0
aF323.0
aaaa(lp169
(lp170
S'000837'
p171
ag4
ag5
aF254.7
aF120.4
aF366.6
aF161.3
aa(lp172
(lp173
F261.0
aF65.0
aF365.0
aF159.0
aaaa(lp174
(lp175
S'000350'
p176
ag4
ag5
aF109.6
aF147.5
aF239.2
aF185.5
aa(lp177
(lp178
F101.0
aF141.0
aF121.0
aF171.0
aa(lp179
F105.0
aF162.0
aF176.0
aF190.0
aa(lp180
F167.0
aF145.0
aF247.0
aF189.0
aaaa(lp181
(lp182
S'005604'
p183
ag4
ag5
aF310.4
aF422.0
aF368.1
aF452.3
aa(lp184
(lp185
F41.0
aF312.0
aF106.0
aF415.0
aa(lp186
F285.0
aF414.0
aF375.0
aF455.0
aa(lp187
F1.0
aF1.0
aF319.0
aF465.0
aaaa(lp188
(lp189
S'008217'
p190
ag4
ag5
aF153.5
aF259.4
aF339.3
aF326.2
aa(lp191
(lp192
F44.0
aF146.0
aF337.0
aF323.0
aaaa(lp193
(lp194
S'007660'
p195
ag4
ag5
aF102.8
aF151.5
aF384.8
aF252.1
aa(lp196
(lp197
F64.0
aF1.0
aF465.0
aF252.0
aaaa(lp198
(lp199
S'001155'
p200
ag4
ag5
aF155.0
aF3.0
aF269.4
aF175.0
aa(lp201
(lp202
F22.0
aF134.0
aF336.0
aF308.0
aaaa(lp203
(lp204
S'001342'
p205
ag4
ag5
aF198.6
aF117.8
aF270.2
aF155.2
aa(lp206
(lp207
F194.0
aF36.0
aF270.0
aF157.0
aa(lp208
F180.0
aF76.0
aF213.0
aF96.0
aa(lp209
F169.0
aF88.0
aF194.0
aF107.0
aa(lp210
F353.0
aF75.0
aF378.0
aF88.0
aa(lp211
F111.0
aF68.0
aF129.0
aF79.0
aa(lp212
F160.0
aF55.0
aF174.0
aF75.0
aa(lp213
F74.0
aF68.0
aF94.0
aF82.0
aaaa(lp214
(lp215
S'005098'
p216
ag4
ag5
aF2.6
aF79.8
aF72.6
aF120.7
aa(lp217
(lp218
F36.0
aF107.0
aF375.0
aF224.0
aaaa(lp219
(lp220
S'007464'
p221
ag4
ag5
aF201.2
aF266.9
aF500.0
aF345.0
aa(lp222
(lp223
F167.0
aF114.0
aF255.0
aF249.0
aa(lp224
F300.0
aF264.0
aF493.0
aF310.0
aaaa(lp225
(lp226
S'007788'
p227
ag4
ag5
aF104.0
aF5.1
aF238.9
aF156.0
aa(lp228
(lp229
F5.0
aF119.0
aF494.0
aF327.0
aaaa(lp230
(lp231
S'009538'
p232
ag4
ag5
aF132.6
aF39.1
aF500.0
aF310.4
aa(lp233
(lp234
F156.0
aF236.0
aF500.0
aF308.0
aa(lp235
F1.0
aF249.0
aF65.0
aF311.0
aaaa(lp236
(lp237
S'001591'
p238
ag4
ag5
aF128.9
aF92.2
aF483.3
aF228.9
aa(lp239
(lp240
F1.0
aF36.0
aF454.0
aF215.0
aaaa(lp241
(lp242
S'003111'
p243
ag4
ag5
aF101.1
aF192.9
aF155.2
aF244.7
aa(lp244
(lp245
F400.0
aF199.0
aF496.0
aF240.0
aa(lp246
F271.0
aF196.0
aF413.0
aF244.0
aa(lp247
F282.0
aF50.0
aF401.0
aF262.0
aaaa(lp248
(lp249
S'008047'
p250
ag4
ag5
aF62.7
aF157.6
aF199.9
aF234.0
aa(lp251
aa(lp252
(lp253
S'007400'
p254
ag4
ag5
aF57.5
aF330.2
aF210.0
aF462.0
aa(lp255
(lp256
F61.0
aF354.0
aF215.0
aF415.0
aaaa(lp257
(lp258
S'000449'
p259
ag4
ag5
aF206.7
aF42.1
aF500.0
aF286.0
aa(lp260
(lp261
F1.0
aF1.0
aF500.0
aF298.0
aaaa(lp262
(lp263
S'005329'
p264
ag4
ag5
aF176.0
aF226.1
aF256.1
aF266.5
aa(lp265
(lp266
F175.0
aF124.0
aF259.0
aF266.0
aa(lp267
F1.0
aF198.0
aF158.0
aF298.0
aa(lp268
F142.0
aF167.0
aF229.0
aF252.0
aa(lp269
F92.0
aF191.0
aF129.0
aF241.0
aa(lp270
F1.0
aF200.0
aF61.0
aF240.0
aa(lp271
F254.0
aF183.0
aF300.0
aF248.0
aa(lp272
F325.0
aF226.0
aF374.0
aF256.0
aa(lp273
F275.0
aF220.0
aF349.0
aF261.0
aa(lp274
F187.0
aF229.0
aF231.0
aF249.0
aaaa(lp275
(lp276
S'002628'
p277
ag4
ag5
aF226.7
aF259.5
aF349.1
aF304.9
aa(lp278
(lp279
F235.0
aF57.0
aF351.0
aF306.0
aa(lp280
F172.0
aF78.0
aF284.0
aF280.0
aa(lp281
F64.0
aF168.0
aF121.0
aF267.0
aaaa(lp282
(lp283
S'001342'
p284
ag4
ag5
aF342.3
aF67.9
aF383.2
aF83.0
aa(lp285
(lp286
F194.0
aF36.0
aF270.0
aF157.0
aa(lp287
F180.0
aF76.0
aF213.0
aF96.0
aa(lp288
F169.0
aF88.0
aF194.0
aF107.0
aa(lp289
F353.0
aF75.0
aF378.0
aF88.0
aa(lp290
F111.0
aF68.0
aF129.0
aF79.0
aa(lp291
F160.0
aF55.0
aF174.0
aF75.0
aa(lp292
F74.0
aF68.0
aF94.0
aF82.0
aaaa(lp293
(lp294
S'006997'
p295
ag4
ag5
aF52.3
aF184.8
aF454.4
aF267.7
aa(lp296
(lp297
F83.0
aF3.0
aF487.0
aF275.0
aaaa(lp298
(lp299
S'000375'
p300
ag4
ag5
aF170.0
aF1.5
aF244.1
aF111.7
aa(lp301
(lp302
F3.0
aF1.0
aF489.0
aF340.0
aaaa(lp303
(lp304
S'006232'
p305
ag4
ag5
aF120.4
aF152.5
aF450.0
aF249.6
aa(lp306
aa(lp307
(lp308
S'001355'
p309
ag4
ag5
aF44.9
aF107.5
aF82.2
aF156.0
aa(lp310
(lp311
F68.0
aF118.0
aF500.0
aF375.0
aaaa(lp312
(lp313
S'005272'
p314
ag4
ag5
aF199.8
aF18.9
aF384.0
aF195.4
aa(lp315
(lp316
F332.0
aF24.0
aF470.0
aF203.0
aa(lp317
F65.0
aF3.0
aF240.0
aF224.0
aaaa(lp318
(lp319
S'005162'
p320
ag4
ag5
aF1.9
aF269.7
aF142.6
aF465.6
aa(lp321
aa(lp322
(lp323
S'002628'
p324
ag4
ag5
aF170.8
aF234.3
aF275.7
aF278.8
aa(lp325
(lp326
F235.0
aF57.0
aF351.0
aF306.0
aa(lp327
F172.0
aF78.0
aF284.0
aF280.0
aa(lp328
F64.0
aF168.0
aF121.0
aF267.0
aaaa(lp329
(lp330
S'006997'
p331
ag4
ag5
aF93.2
aF1.0
aF226.2
aF281.8
aa(lp332
(lp333
F83.0
aF3.0
aF487.0
aF275.0
aaaa(lp334
(lp335
S'001634'
p336
ag4
ag5
aF334.4
aF141.4
aF469.7
aF291.5
aa(lp337
(lp338
F14.0
aF44.0
aF403.0
aF335.0
aaaa(lp339
(lp340
S'005272'
p341
ag4
ag5
aF84.1
aF172.4
aF223.5
aF227.3
aa(lp342
(lp343
F332.0
aF24.0
aF470.0
aF203.0
aa(lp344
F65.0
aF3.0
aF240.0
aF224.0
aaaa(lp345
(lp346
S'002175'
p347
ag4
ag5
aF291.0
aF130.9
aF387.4
aF220.9
aa(lp348
(lp349
F11.0
aF216.0
aF85.0
aF240.0
aaaa(lp350
(lp351
S'001155'
p352
ag4
ag5
aF65.1
aF12.3
aF143.4
aF153.3
aa(lp353
(lp354
F22.0
aF134.0
aF336.0
aF308.0
aaaa(lp355
(lp356
S'001410'
p357
ag4
ag5
aF451.8
aF31.9
aF486.1
aF55.2
aa(lp358
(lp359
F189.0
aF46.0
aF349.0
aF259.0
aa(lp360
F33.0
aF2.0
aF98.0
aF97.0
aa(lp361
F67.0
aF20.0
aF93.0
aF39.0
aa(lp362
F160.0
aF2.0
aF194.0
aF77.0
aa(lp363
F209.0
aF1.0
aF251.0
aF34.0
aa(lp364
F238.0
aF43.0
aF262.0
aF64.0
aa(lp365
F302.0
aF65.0
aF355.0
aF94.0
aa(lp366
F364.0
aF49.0
aF421.0
aF80.0
aa(lp367
F436.0
aF32.0
aF496.0
aF63.0
aa(lp368
F390.0
aF2.0
aF433.0
aF29.0
aa(lp369
F289.0
aF1.0
aF328.0
aF26.0
aaaa(lp370
(lp371
S'006408'
p372
ag4
ag5
aF167.7
aF223.7
aF197.5
aF244.0
aa(lp373
(lp374
F170.0
aF154.0
aF193.0
aF247.0
aaaa(lp375
(lp376
S'000444'
p377
ag4
ag5
aF4.5
aF235.7
aF311.4
aF335.8
aa(lp378
(lp379
F2.0
aF2.0
aF332.0
aF325.0
aaaa(lp380
(lp381
S'000371'
p382
ag4
ag5
aF240.4
aF73.7
aF362.8
aF237.2
aa(lp383
(lp384
F248.0
aF179.0
aF406.0
aF248.0
aaaa(lp385
(lp386
S'003111'
p387
ag4
ag5
aF349.2
aF239.9
aF400.8
aF260.7
aa(lp388
(lp389
F400.0
aF199.0
aF496.0
aF240.0
aa(lp390
F271.0
aF196.0
aF413.0
aF244.0
aa(lp391
F282.0
aF50.0
aF401.0
aF262.0
aaaa(lp392
(lp393
S'005112'
p394
ag4
ag5
aF363.9
aF113.7
aF426.7
aF177.3
aa(lp395
(lp396
F103.0
aF164.0
aF171.0
aF192.0
aa(lp397
F296.0
aF183.0
aF390.0
aF204.0
aa(lp398
F32.0
aF170.0
aF81.0
aF185.0
aa(lp399
F369.0
aF175.0
aF426.0
aF190.0
aa(lp400
F146.0
aF266.0
aF255.0
aF294.0
aaaa(lp401
(lp402
S'002764'
p403
ag4
ag5
aF180.0
aF321.2
aF220.4
aF356.5
aa(lp404
(lp405
F43.0
aF110.0
aF217.0
aF355.0
aaaa(lp406
(lp407
S'004728'
p408
ag4
ag5
aF7.4
aF193.5
aF160.2
aF230.4
aa(lp409
aa(lp410
(lp411
S'006205'
p412
ag4
ag5
aF79.4
aF253.5
aF107.0
aF296.7
aa(lp413
(lp414
F250.0
aF184.0
aF328.0
aF303.0
aa(lp415
F394.0
aF260.0
aF425.0
aF293.0
aa(lp416
F11.0
aF255.0
aF28.0
aF290.0
aa(lp417
F86.0
aF256.0
aF100.0
aF290.0
aaaa(lp418
(lp419
S'005427'
p420
ag4
ag5
aF99.3
aF119.9
aF135.2
aF187.7
aa(lp421
(lp422
F86.0
aF147.0
aF397.0
aF249.0
aa(lp423
F74.0
aF129.0
aF321.0
aF218.0
aaaa(lp424
(lp425
S'009396'
p426
ag4
ag5
aF112.6
aF101.5
aF182.7
aF268.3
aa(lp427
aa(lp428
(lp429
S'007660'
p430
ag4
ag5
aF329.9
aF176.1
aF453.0
aF238.9
aa(lp431
(lp432
F64.0
aF1.0
aF465.0
aF252.0
aaaa(lp433
(lp434
S'000350'
p435
ag4
ag5
aF101.9
aF136.9
aF142.4
aF189.9
aa(lp436
(lp437
F101.0
aF141.0
aF121.0
aF171.0
aa(lp438
F105.0
aF162.0
aF176.0
aF190.0
aa(lp439
F167.0
aF145.0
aF247.0
aF189.0
aaaa(lp440
(lp441
S'003111'
p442
ag4
ag5
aF173.4
aF42.0
aF308.2
aF222.9
aa(lp443
(lp444
F400.0
aF199.0
aF496.0
aF240.0
aa(lp445
F271.0
aF196.0
aF413.0
aF244.0
aa(lp446
F282.0
aF50.0
aF401.0
aF262.0
aaaa(lp447
(lp448
S'003836'
p449
ag4
ag5
aF165.6
aF66.2
aF369.0
aF281.1
aa(lp450
(lp451
F158.0
aF269.0
aF235.0
aF284.0
aaaa(lp452
(lp453
S'007464'
p454
ag4
ag5
aF165.2
aF224.6
aF259.3
aF250.0
aa(lp455
(lp456
F167.0
aF114.0
aF255.0
aF249.0
aa(lp457
F300.0
aF264.0
aF493.0
aF310.0
aaaa(lp458
(lp459
S'006302'
p460
ag4
ag5
aF359.0
aF164.0
aF391.1
aF252.9
aa(lp461
(lp462
F410.0
aF90.0
aF500.0
aF270.0
aa(lp463
F150.0
aF101.0
aF237.0
aF273.0
aa(lp464
F31.0
aF163.0
aF79.0
aF263.0
aa(lp465
F6.0
aF163.0
aF50.0
aF266.0
aaaa(lp466
(lp467
S'005098'
p468
ag4
ag5
aF73.4
aF41.5
aF248.9
aF100.0
aa(lp469
(lp470
F36.0
aF107.0
aF375.0
aF224.0
aaaa(lp471
(lp472
S'008545'
p473
ag4
ag5
aF116.0
aF213.6
aF346.7
aF361.1
aa(lp474
(lp475
F272.0
aF241.0
aF350.0
aF344.0
aa(lp476
F92.0
aF29.0
aF295.0
aF383.0
aaaa(lp477
(lp478
S'006048'
p479
ag4
ag5
aF29.8
aF160.6
aF266.9
aF381.8
aa(lp480
(lp481
F1.0
aF1.0
aF331.0
aF390.0
aaaa(lp482
(lp483
S'004056'
p484
ag4
ag5
aF50.4
aF244.8
aF116.9
aF272.8
aa(lp485
aa(lp486
(lp487
S'000375'
p488
ag4
ag5
aF33.2
aF31.0
aF271.0
aF291.4
aa(lp489
(lp490
F3.0
aF1.0
aF489.0
aF340.0
aaaa(lp491
(lp492
S'008868'
p493
ag4
ag5
aF58.9
aF132.8
aF442.7
aF309.5
aa(lp494
(lp495
F18.0
aF179.0
aF368.0
aF273.0
aa(lp496
F234.0
aF123.0
aF380.0
aF222.0
aaaa(lp497
(lp498
S'006408'
p499
ag4
ag5
aF160.2
aF149.3
aF198.7
aF222.0
aa(lp500
(lp501
F170.0
aF154.0
aF193.0
aF247.0
aaaa(lp502
(lp503
S'003143'
p504
ag4
ag5
aF45.3
aF67.8
aF70.4
aF112.3
aa(lp505
aa(lp506
(lp507
S'001634'
p508
ag4
ag5
aF343.5
aF265.5
aF426.9
aF293.1
aa(lp509
(lp510
F14.0
aF44.0
aF403.0
aF335.0
aaaa(lp511
(lp512
S'009260'
p513
ag4
ag5
aF339.7
aF13.7
aF500.0
aF141.3
aa(lp514
aa(lp515
(lp516
S'002110'
p517
ag4
ag5
aF428.1
aF68.5
aF497.0
aF106.0
aa(lp518
aa(lp519
(lp520
S'003929'
p521
ag4
ag5
aF10.1
aF70.6
aF82.0
aF108.8
aa(lp522
(lp523
F18.0
aF62.0
aF58.0
aF112.0
aa(lp524
F308.0
aF57.0
aF355.0
aF114.0
aaaa(lp525
(lp526
S'004914'
p527
ag4
ag5
aF125.0
aF1.0
aF219.9
aF297.4
aa(lp528
(lp529
F78.0
aF6.0
aF373.0
aF354.0
aaaa(lp530
(lp531
S'001355'
p532
ag4
ag5
aF92.8
aF1.0
aF228.6
aF191.5
aa(lp533
(lp534
F68.0
aF118.0
aF500.0
aF375.0
aaaa(lp535
(lp536
S'005720'
p537
ag4
ag5
aF45.3
aF357.5
aF150.0
aF466.8
aa(lp538
(lp539
F26.0
aF1.0
aF310.0
aF471.0
aaaa(lp540
(lp541
S'005771'
p542
ag4
ag5
aF231.7
aF197.2
aF272.1
aF241.7
aa(lp543
(lp544
F73.0
aF179.0
aF105.0
aF192.0
aa(lp545
F83.0
aF116.0
aF111.0
aF154.0
aa(lp546
F4.0
aF104.0
aF19.0
aF122.0
aa(lp547
F29.0
aF113.0
aF45.0
aF122.0
aa(lp548
F51.0
aF101.0
aF68.0
aF124.0
aa(lp549
F57.0
aF102.0
aF72.0
aF112.0
aa(lp550
F85.0
aF101.0
aF89.0
aF112.0
aa(lp551
F82.0
aF104.0
aF98.0
aF125.0
aa(lp552
F104.0
aF101.0
aF114.0
aF111.0
aa(lp553
F105.0
aF103.0
aF123.0
aF125.0
aa(lp554
F134.0
aF104.0
aF153.0
aF126.0
aa(lp555
F153.0
aF104.0
aF164.0
aF122.0
aa(lp556
F159.0
aF106.0
aF172.0
aF125.0
aa(lp557
F160.0
aF110.0
aF183.0
aF120.0
aa(lp558
F191.0
aF101.0
aF207.0
aF127.0
aa(lp559
F226.0
aF104.0
aF241.0
aF126.0
aa(lp560
F236.0
aF99.0
aF251.0
aF121.0
aa(lp561
F246.0
aF107.0
aF268.0
aF133.0
aa(lp562
F264.0
aF103.0
aF284.0
aF126.0
aa(lp563
F291.0
aF106.0
aF307.0
aF128.0
aa(lp564
F332.0
aF104.0
aF351.0
aF127.0
aa(lp565
F377.0
aF96.0
aF399.0
aF122.0
aa(lp566
F410.0
aF103.0
aF432.0
aF127.0
aa(lp567
F420.0
aF103.0
aF435.0
aF124.0
aa(lp568
F442.0
aF108.0
aF458.0
aF127.0
aa(lp569
F334.0
aF109.0
aF380.0
aF155.0
aa(lp570
F235.0
aF195.0
aF276.0
aF219.0
aa(lp571
F122.0
aF133.0
aF150.0
aF170.0
aa(lp572
F216.0
aF219.0
aF270.0
aF247.0
aa(lp573
F300.0
aF122.0
aF318.0
aF149.0
aa(lp574
F383.0
aF121.0
aF403.0
aF145.0
aa(lp575
F153.0
aF151.0
aF176.0
aF161.0
aaaa(lp576
(lp577
S'003543'
p578
ag4
ag5
aF3.8
aF10.4
aF273.9
aF302.7
aa(lp579
(lp580
F210.0
aF60.0
aF367.0
aF189.0
aa(lp581
F357.0
aF143.0
aF403.0
aF184.0
aa(lp582
F159.0
aF55.0
aF178.0
aF81.0
aa(lp583
F1.0
aF85.0
aF173.0
aF374.0
aaaa(lp584
a(lp585
a(lp586
a(lp587
a(lp588
a(lp589
a(lp590
a(lp591
a(lp592
a(lp593
a(lp594
a(lp595
a(lp596
a(lp597
a(lp598
a(lp599
a(lp600
a(lp601
a(lp602
a(lp603
a(lp604
a(lp605
a(lp606
a(lp607
a(lp608
a(lp609
a(lp610
a(lp611
a(lp612
a(lp613
a(lp614
a(lp615
a(lp616
a(lp617
a(lp618
a(lp619
a(lp620
a(lp621
a(lp622
a(lp623
a(lp624
a(lp625
a(lp626
a(lp627
a(lp628
a(lp629
a(lp630
a(lp631
a(lp632
a(lp633
a(lp634
a(lp635
a(lp636
a(lp637
a(lp638
a(lp639
a(lp640
a(lp641
a(lp642
a(lp643
a(lp644
a(lp645
a(lp646
a(lp647
a(lp648
a(lp649
a(lp650
a(lp651
a(lp652
a(lp653
a(lp654
a(lp655
a(lp656
a(lp657
a(lp658
a(lp659
a(lp660
a(lp661
a(lp662
a(lp663
a(lp664
a(lp665
a(lp666
a(lp667
a(lp668
a(lp669
a(lp670
a(lp671
a(lp672
a(lp673
a(lp674
a(lp675
a(lp676
a(lp677
a(lp678
a(lp679
a(lp680
a(lp681
a(lp682
a(lp683
a(lp684
a(lp685
a(lp686
a(lp687
a(lp688
a(lp689
a(lp690
a(lp691
a(lp692
a(lp693
a(lp694
a(lp695
a(lp696
a(lp697
a(lp698
a(lp699
a(lp700
a(lp701
a(lp702
a(lp703
a(lp704
a(lp705
a(lp706
a(lp707
a(lp708
a(lp709
a(lp710
a(lp711
a(lp712
a(lp713
a(lp714
a(lp715
a(lp716
a(lp717
a(lp718
a(lp719
a(lp720
a(lp721
a(lp722
a(lp723
a(lp724
a(lp725
a(lp726
a(lp727
a(lp728
a(lp729
a(lp730
a(lp731
a(lp732
a(lp733
a(lp734
a(lp735
a(lp736
a(lp737
a(lp738
a(lp739
a(lp740
a(lp741
a(lp742
a(lp743
a(lp744
a(lp745
a(lp746
a(lp747
a(lp748
a(lp749
a(lp750
a(lp751
a(lp752
a(lp753
a(lp754
a(lp755
a(lp756
a.