(lp0
(lp1
(lp2
S'006539'
p3
aS'bottle'
p4
aS'err_lowIoU'
p5
aF260.5
aF178.5
aF317.7
aF269.6
aa(lp6
aF0.997
aa(lp7
(lp8
S'003766'
p9
ag4
ag5
aF451.9
aF240.7
aF490.8
aF343.6
aa(lp10
aF0.996
aa(lp11
(lp12
S'002773'
p13
ag4
ag5
aF9.4
aF224.7
aF47.9
aF344.1
aa(lp14
(lp15
F460.0
aF216.0
aF475.0
aF276.0
aa(lp16
F475.0
aF216.0
aF493.0
aF273.0
aa(lp17
F10.0
aF14.0
aF36.0
aF105.0
aa(lp18
F75.0
aF50.0
aF97.0
aF120.0
aa(lp19
F143.0
aF64.0
aF157.0
aF132.0
aa(lp20
F153.0
aF78.0
aF170.0
aF135.0
aa(lp21
F39.0
aF123.0
aF65.0
aF206.0
aa(lp22
F61.0
aF128.0
aF86.0
aF205.0
aa(lp23
F115.0
aF136.0
aF135.0
aF202.0
aa(lp24
F131.0
aF139.0
aF146.0
aF181.0
aa(lp25
F17.0
aF232.0
aF43.0
aF317.0
aa(lp26
F86.0
aF224.0
aF107.0
aF298.0
aa(lp27
F101.0
aF220.0
aF115.0
aF256.0
aa(lp28
F53.0
aF326.0
aF70.0
aF375.0
aa(lp29
F68.0
aF317.0
aF93.0
aF375.0
aaaF0.994
aa(lp30
(lp31
S'004476'
p32
ag4
ag5
aF358.1
aF26.1
aF409.5
aF223.6
aa(lp33
(lp34
F328.0
aF75.0
aF352.0
aF170.0
aa(lp35
F371.0
aF81.0
aF404.0
aF177.0
aa(lp36
F21.0
aF219.0
aF58.0
aF336.0
aaaF0.986
aa(lp37
(lp38
S'003943'
p39
ag4
ag5
aF371.6
aF304.9
aF394.4
aF373.1
aa(lp40
(lp41
F389.0
aF317.0
aF401.0
aF368.0
aa(lp42
F359.0
aF310.0
aF373.0
aF361.0
aa(lp43
F372.0
aF318.0
aF380.0
aF340.0
aa(lp44
F379.0
aF314.0
aF392.0
aF341.0
aaaF0.985
aa(lp45
(lp46
S'004348'
p47
ag4
ag5
aF444.3
aF20.6
aF500.0
aF198.5
aa(lp48
(lp49
F471.0
aF1.0
aF500.0
aF64.0
aaaF0.983
aa(lp50
(lp51
S'006003'
p52
ag4
ag5
aF99.2
aF29.1
aF361.6
aF404.9
aa(lp53
(lp54
F205.0
aF77.0
aF333.0
aF364.0
aa(lp55
F51.0
aF62.0
aF169.0
aF356.0
aaaF0.983
aa(lp56
(lp57
S'002211'
p58
ag4
ag5
aF11.8
aF212.3
aF55.2
aF290.4
aa(lp59
aF0.977
aa(lp60
(lp61
S'002773'
p62
ag4
ag5
aF48.9
aF121.9
aF77.2
aF209.4
aa(lp63
(lp64
F460.0
aF216.0
aF475.0
aF276.0
aa(lp65
F475.0
aF216.0
aF493.0
aF273.0
aa(lp66
F10.0
aF14.0
aF36.0
aF105.0
aa(lp67
F75.0
aF50.0
aF97.0
aF120.0
aa(lp68
F143.0
aF64.0
aF157.0
aF132.0
aa(lp69
F153.0
aF78.0
aF170.0
aF135.0
aa(lp70
F39.0
aF123.0
aF65.0
aF206.0
aa(lp71
F61.0
aF128.0
aF86.0
aF205.0
aa(lp72
F115.0
aF136.0
aF135.0
aF202.0
aa(lp73
F131.0
aF139.0
aF146.0
aF181.0
aa(lp74
F17.0
aF232.0
aF43.0
aF317.0
aa(lp75
F86.0
aF224.0
aF107.0
aF298.0
aa(lp76
F101.0
aF220.0
aF115.0
aF256.0
aa(lp77
F53.0
aF326.0
aF70.0
aF375.0
aa(lp78
F68.0
aF317.0
aF93.0
aF375.0
aaaF0.977
aa(lp79
(lp80
S'004236'
p81
ag4
ag5
aF97.4
aF148.6
aF142.1
aF253.9
aa(lp82
(lp83
F81.0
aF149.0
aF157.0
aF333.0
aa(lp84
F140.0
aF113.0
aF206.0
aF333.0
aa(lp85
F207.0
aF123.0
aF284.0
aF333.0
aa(lp86
F295.0
aF125.0
aF373.0
aF333.0
aa(lp87
F107.0
aF39.0
aF135.0
aF106.0
aa(lp88
F150.0
aF43.0
aF186.0
aF112.0
aa(lp89
F139.0
aF27.0
aF163.0
aF71.0
aa(lp90
F185.0
aF30.0
aF206.0
aF94.0
aa(lp91
F199.0
aF58.0
aF227.0
aF146.0
aa(lp92
F245.0
aF70.0
aF277.0
aF150.0
aa(lp93
F249.0
aF26.0
aF276.0
aF73.0
aa(lp94
F224.0
aF41.0
aF249.0
aF86.0
aa(lp95
F207.0
aF14.0
aF233.0
aF59.0
aa(lp96
F170.0
aF8.0
aF196.0
aF47.0
aa(lp97
F275.0
aF50.0
aF295.0
aF67.0
aa(lp98
F327.0
aF51.0
aF354.0
aF84.0
aa(lp99
F347.0
aF36.0
aF376.0
aF89.0
aa(lp100
F366.0
aF24.0
aF394.0
aF61.0
aa(lp101
F380.0
aF58.0
aF408.0
aF87.0
aa(lp102
F396.0
aF44.0
aF426.0
aF87.0
aa(lp103
F437.0
aF67.0
aF466.0
aF100.0
aa(lp104
F451.0
aF51.0
aF481.0
aF80.0
aa(lp105
F470.0
aF32.0
aF497.0
aF60.0
aa(lp106
F419.0
aF26.0
aF441.0
aF52.0
aaaF0.975
aa(lp107
(lp108
S'004739'
p109
ag4
ag5
aF202.2
aF256.4
aF249.4
aF355.8
aa(lp110
aF0.975
aa(lp111
(lp112
S'004348'
p113
ag4
ag5
aF399.2
aF36.2
aF467.9
aF173.1
aa(lp114
(lp115
F471.0
aF1.0
aF500.0
aF64.0
aaaF0.974
aa(lp116
(lp117
S'002712'
p118
ag4
ag5
aF42.8
aF185.4
aF65.4
aF228.9
aa(lp119
(lp120
F240.0
aF212.0
aF290.0
aF372.0
aaaF0.974
aa(lp121
(lp122
S'005166'
p123
ag4
ag5
aF377.5
aF47.9
aF413.1
aF112.6
aa(lp124
aF0.973
aa(lp125
(lp126
S'002240'
p127
ag4
ag5
aF297.8
aF245.8
aF345.0
aF322.4
aa(lp128
aF0.971
aa(lp129
(lp130
S'001347'
p131
ag4
ag5
aF243.3
aF258.3
aF278.5
aF341.1
aa(lp132
aF0.97
aa(lp133
(lp134
S'004923'
p135
ag4
ag5
aF40.5
aF189.1
aF66.0
aF235.8
aa(lp136
aF0.967
aa(lp137
(lp138
S'001569'
p139
ag4
ag5
aF284.3
aF221.0
aF369.2
aF433.6
aa(lp140
(lp141
F5.0
aF274.0
aF43.0
aF394.0
aa(lp142
F60.0
aF312.0
aF114.0
aF411.0
aaaF0.967
aa(lp143
(lp144
S'006546'
p145
ag4
ag5
aF302.4
aF183.9
aF331.5
aF253.4
aa(lp146
aF0.963
aa(lp147
(lp148
S'004236'
p149
ag4
ag5
aF144.7
aF107.7
aF188.4
aF240.3
aa(lp150
(lp151
F81.0
aF149.0
aF157.0
aF333.0
aa(lp152
F140.0
aF113.0
aF206.0
aF333.0
aa(lp153
F207.0
aF123.0
aF284.0
aF333.0
aa(lp154
F295.0
aF125.0
aF373.0
aF333.0
aa(lp155
F107.0
aF39.0
aF135.0
aF106.0
aa(lp156
F150.0
aF43.0
aF186.0
aF112.0
aa(lp157
F139.0
aF27.0
aF163.0
aF71.0
aa(lp158
F185.0
aF30.0
aF206.0
aF94.0
aa(lp159
F199.0
aF58.0
aF227.0
aF146.0
aa(lp160
F245.0
aF70.0
aF277.0
aF150.0
aa(lp161
F249.0
aF26.0
aF276.0
aF73.0
aa(lp162
F224.0
aF41.0
aF249.0
aF86.0
aa(lp163
F207.0
aF14.0
aF233.0
aF59.0
aa(lp164
F170.0
aF8.0
aF196.0
aF47.0
aa(lp165
F275.0
aF50.0
aF295.0
aF67.0
aa(lp166
F327.0
aF51.0
aF354.0
aF84.0
aa(lp167
F347.0
aF36.0
aF376.0
aF89.0
aa(lp168
F366.0
aF24.0
aF394.0
aF61.0
aa(lp169
F380.0
aF58.0
aF408.0
aF87.0
aa(lp170
F396.0
aF44.0
aF426.0
aF87.0
aa(lp171
F437.0
aF67.0
aF466.0
aF100.0
aa(lp172
F451.0
aF51.0
aF481.0
aF80.0
aa(lp173
F470.0
aF32.0
aF497.0
aF60.0
aa(lp174
F419.0
aF26.0
aF441.0
aF52.0
aaaF0.96
aa(lp175
(lp176
S'004134'
p177
ag4
ag5
aF156.5
aF1.0
aF211.2
aF118.3
aa(lp178
(lp179
F105.0
aF3.0
aF143.0
aF111.0
aa(lp180
F147.0
aF3.0
aF172.0
aF103.0
aa(lp181
F184.0
aF1.0
aF212.0
aF103.0
aa(lp182
F219.0
aF1.0
aF238.0
aF100.0
aa(lp183
F243.0
aF1.0
aF276.0
aF93.0
aa(lp184
F326.0
aF298.0
aF394.0
aF400.0
aa(lp185
F324.0
aF243.0
aF408.0
aF380.0
aa(lp186
F125.0
aF312.0
aF231.0
aF349.0
aa(lp187
F195.0
aF292.0
aF299.0
aF323.0
aaaF0.959
aa(lp188
(lp189
S'004491'
p190
ag4
ag5
aF421.2
aF261.5
aF452.0
aF312.1
aa(lp191
aF0.959
aa(lp192
(lp193
S'008414'
p194
ag4
ag5
aF414.2
aF107.6
aF437.5
aF162.6
aa(lp195
(lp196
F38.0
aF102.0
aF47.0
aF118.0
aaaF0.958
aa(lp197
(lp198
S'001167'
p199
ag4
ag5
aF6.4
aF252.4
aF49.3
aF350.6
aa(lp200
(lp201
F1.0
aF94.0
aF43.0
aF357.0
aaaF0.952
aa(lp202
(lp203
S'000265'
p204
ag4
ag5
aF210.7
aF256.3
aF272.2
aF322.5
aa(lp205
aF0.942
aa(lp206
(lp207
S'009544'
p208
ag4
ag5
aF336.7
aF6.9
aF359.7
aF57.5
aa(lp209
aF0.939
aa(lp210
(lp211
S'008520'
p212
ag4
ag5
aF95.6
aF284.4
aF131.6
aF356.3
aa(lp213
(lp214
F288.0
aF222.0
aF324.0
aF328.0
aa(lp215
F253.0
aF114.0
aF278.0
aF182.0
aa(lp216
F299.0
aF1.0
aF313.0
aF27.0
aaaF0.939
aa(lp217
(lp218
S'004422'
p219
ag4
ag5
aF228.8
aF87.9
aF280.0
aF236.4
aa(lp220
(lp221
F389.0
aF219.0
aF408.0
aF291.0
aa(lp222
F381.0
aF205.0
aF390.0
aF241.0
aa(lp223
F371.0
aF216.0
aF386.0
aF286.0
aa(lp224
F352.0
aF223.0
aF371.0
aF294.0
aa(lp225
F343.0
aF211.0
aF355.0
aF289.0
aa(lp226
F330.0
aF215.0
aF344.0
aF288.0
aaaF0.938
aa(lp227
(lp228
S'008719'
p229
ag4
ag5
aF274.2
aF1.0
aF474.3
aF268.2
aa(lp230
aF0.936
aa(lp231
(lp232
S'005237'
p233
ag4
ag5
aF154.4
aF145.8
aF175.8
aF205.9
aa(lp234
aF0.935
aa(lp235
(lp236
S'004068'
p237
ag4
ag5
aF249.5
aF160.1
aF316.8
aF342.9
aa(lp238
(lp239
F306.0
aF184.0
aF348.0
aF328.0
aa(lp240
F270.0
aF172.0
aF305.0
aF241.0
aaaF0.933
aa(lp241
(lp242
S'006500'
p243
ag4
ag5
aF153.0
aF25.1
aF175.3
aF93.5
aa(lp244
(lp245
F288.0
aF224.0
aF330.0
aF328.0
aa(lp246
F233.0
aF216.0
aF270.0
aF314.0
aa(lp247
F186.0
aF207.0
aF224.0
aF297.0
aa(lp248
F146.0
aF200.0
aF183.0
aF285.0
aa(lp249
F111.0
aF195.0
aF144.0
aF273.0
aa(lp250
F69.0
aF161.0
aF108.0
aF266.0
aa(lp251
F34.0
aF156.0
aF72.0
aF257.0
aa(lp252
F11.0
aF155.0
aF40.0
aF250.0
aa(lp253
F1.0
aF151.0
aF19.0
aF241.0
aa(lp254
F371.0
aF95.0
aF415.0
aF217.0
aa(lp255
F326.0
aF94.0
aF367.0
aF213.0
aa(lp256
F289.0
aF94.0
aF327.0
aF203.0
aa(lp257
F252.0
aF92.0
aF290.0
aF202.0
aa(lp258
F225.0
aF95.0
aF257.0
aF188.0
aa(lp259
F190.0
aF93.0
aF225.0
aF191.0
aa(lp260
F167.0
aF96.0
aF195.0
aF185.0
aa(lp261
F141.0
aF94.0
aF169.0
aF186.0
aa(lp262
F107.0
aF98.0
aF142.0
aF179.0
aa(lp263
F290.0
aF171.0
aF332.0
aF231.0
aa(lp264
F210.0
aF161.0
aF247.0
aF282.0
aa(lp265
F154.0
aF158.0
aF197.0
aF232.0
aa(lp266
F110.0
aF153.0
aF149.0
aF224.0
aa(lp267
F86.0
aF100.0
aF114.0
aF178.0
aa(lp268
F63.0
aF98.0
aF94.0
aF176.0
aa(lp269
F46.0
aF99.0
aF69.0
aF151.0
aa(lp270
F27.0
aF96.0
aF51.0
aF149.0
aa(lp271
F12.0
aF96.0
aF33.0
aF146.0
aa(lp272
F1.0
aF99.0
aF16.0
aF170.0
aa(lp273
F384.0
aF1.0
aF429.0
aF128.0
aa(lp274
F338.0
aF1.0
aF382.0
aF128.0
aa(lp275
F295.0
aF1.0
aF344.0
aF132.0
aa(lp276
F252.0
aF1.0
aF288.0
aF128.0
aa(lp277
F213.0
aF1.0
aF249.0
aF125.0
aa(lp278
F177.0
aF3.0
aF213.0
aF123.0
aa(lp279
F149.0
aF6.0
aF179.0
aF124.0
aa(lp280
F127.0
aF9.0
aF156.0
aF125.0
aa(lp281
F106.0
aF11.0
aF132.0
aF121.0
aa(lp282
F81.0
aF11.0
aF111.0
aF119.0
aa(lp283
F61.0
aF11.0
aF88.0
aF120.0
aa(lp284
F36.0
aF18.0
aF65.0
aF100.0
aa(lp285
F13.0
aF19.0
aF40.0
aF98.0
aaaF0.923
aa(lp286
(lp287
S'004599'
p288
ag4
ag5
aF299.0
aF82.0
aF344.4
aF220.0
aa(lp289
(lp290
F117.0
aF24.0
aF240.0
aF458.0
aa(lp291
F286.0
aF116.0
aF340.0
aF255.0
aaaF0.922
aa(lp292
(lp293
S'003431'
p294
ag4
ag5
aF4.9
aF260.9
aF31.1
aF329.6
aa(lp295
(lp296
F1.0
aF250.0
aF29.0
aF385.0
aa(lp297
F59.0
aF226.0
aF129.0
aF468.0
aaaF0.921
aa(lp298
(lp299
S'007456'
p300
ag4
ag5
aF52.1
aF40.2
aF414.3
aF318.4
aa(lp301
(lp302
F93.0
aF63.0
aF168.0
aF168.0
aa(lp303
F123.0
aF55.0
aF185.0
aF170.0
aa(lp304
F277.0
aF29.0
aF331.0
aF122.0
aa(lp305
F223.0
aF57.0
aF288.0
aF160.0
aa(lp306
F153.0
aF92.0
aF241.0
aF287.0
aa(lp307
F322.0
aF43.0
aF433.0
aF291.0
aaaF0.915
aa(lp308
(lp309
S'008520'
p310
ag4
ag5
aF166.8
aF307.1
aF200.6
aF371.1
aa(lp311
(lp312
F288.0
aF222.0
aF324.0
aF328.0
aa(lp313
F253.0
aF114.0
aF278.0
aF182.0
aa(lp314
F299.0
aF1.0
aF313.0
aF27.0
aaaF0.902
aa(lp315
(lp316
S'009544'
p317
ag4
ag5
aF416.8
aF59.2
aF463.1
aF206.4
aa(lp318
aF0.901
aa(lp319
(lp320
S'006313'
p321
ag4
ag5
aF55.6
aF197.5
aF84.0
aF277.6
aa(lp322
aF0.9
aa(lp323
(lp324
S'001706'
p325
ag4
ag5
aF193.1
aF216.1
aF212.9
aF262.1
aa(lp326
aF0.883
aa(lp327
(lp328
S'008505'
p329
ag4
ag5
aF105.7
aF248.8
aF146.4
aF329.4
aa(lp330
aF0.883
aa(lp331
(lp332
S'000178'
p333
ag4
ag5
aF287.0
aF61.8
aF339.7
aF183.5
aa(lp334
(lp335
F240.0
aF85.0
aF288.0
aF254.0
aa(lp336
F356.0
aF72.0
aF397.0
aF216.0
aa(lp337
F331.0
aF60.0
aF362.0
aF166.0
aa(lp338
F302.0
aF70.0
aF335.0
aF158.0
aa(lp339
F279.0
aF56.0
aF310.0
aF162.0
aa(lp340
F167.0
aF65.0
aF204.0
aF180.0
aa(lp341
F202.0
aF82.0
aF251.0
aF244.0
aa(lp342
F107.0
aF75.0
aF139.0
aF134.0
aa(lp343
F133.0
aF74.0
aF156.0
aF113.0
aaaF0.881
aa(lp344
(lp345
S'007744'
p346
ag4
ag5
aF315.0
aF138.4
aF341.9
aF211.2
aa(lp347
(lp348
F443.0
aF160.0
aF489.0
aF305.0
aa(lp349
F378.0
aF164.0
aF440.0
aF307.0
aa(lp350
F384.0
aF131.0
aF439.0
aF225.0
aa(lp351
F341.0
aF154.0
aF373.0
aF293.0
aa(lp352
F309.0
aF133.0
aF355.0
aF313.0
aa(lp353
F278.0
aF153.0
aF308.0
aF293.0
aa(lp354
F238.0
aF126.0
aF287.0
aF312.0
aa(lp355
F219.0
aF174.0
aF246.0
aF295.0
aa(lp356
F173.0
aF140.0
aF224.0
aF309.0
aa(lp357
F140.0
aF168.0
aF180.0
aF294.0
aa(lp358
F93.0
aF142.0
aF140.0
aF308.0
aa(lp359
F38.0
aF170.0
aF82.0
aF307.0
aa(lp360
F1.0
aF209.0
aF19.0
aF336.0
aa(lp361
F4.0
aF170.0
aF36.0
aF286.0
aaaF0.881
aa(lp362
(lp363
S'000369'
p364
ag4
ag5
aF307.2
aF254.9
aF340.8
aF333.6
aa(lp365
(lp366
F181.0
aF259.0
aF216.0
aF375.0
aaaF0.878
aa(lp367
(lp368
S'006546'
p369
ag4
ag5
aF162.1
aF310.9
aF191.8
aF370.9
aa(lp370
aF0.872
aa(lp371
(lp372
S'007393'
p373
ag4
ag5
aF233.1
aF272.0
aF255.2
aF321.3
aa(lp374
aF0.866
aa(lp375
(lp376
S'003929'
p377
ag4
ag5
aF360.1
aF251.0
aF428.9
aF375.0
aa(lp378
aF0.857
aa(lp379
(lp380
S'003929'
p381
ag4
ag5
aF270.0
aF266.2
aF338.0
aF375.0
aa(lp382
aF0.854
aa(lp383
(lp384
S'006195'
p385
ag4
ag5
aF56.5
aF353.9
aF82.3
aF421.4
aa(lp386
(lp387
F55.0
aF365.0
aF72.0
aF419.0
aa(lp388
F72.0
aF366.0
aF85.0
aF419.0
aa(lp389
F29.0
aF364.0
aF46.0
aF419.0
aa(lp390
F284.0
aF331.0
aF299.0
aF366.0
aaaF0.852
aa(lp391
(lp392
S'008686'
p393
ag4
ag5
aF189.6
aF285.8
aF275.1
aF367.7
aa(lp394
(lp395
F241.0
aF159.0
aF295.0
aF316.0
aaaF0.851
aa(lp396
(lp397
S'009040'
p398
ag4
ag5
aF370.5
aF1.0
aF465.3
aF235.0
aa(lp399
aF0.849
aa(lp400
(lp401
S'002773'
p402
ag4
ag5
aF450.0
aF216.2
aF466.9
aF274.8
aa(lp403
(lp404
F460.0
aF216.0
aF475.0
aF276.0
aa(lp405
F475.0
aF216.0
aF493.0
aF273.0
aa(lp406
F10.0
aF14.0
aF36.0
aF105.0
aa(lp407
F75.0
aF50.0
aF97.0
aF120.0
aa(lp408
F143.0
aF64.0
aF157.0
aF132.0
aa(lp409
F153.0
aF78.0
aF170.0
aF135.0
aa(lp410
F39.0
aF123.0
aF65.0
aF206.0
aa(lp411
F61.0
aF128.0
aF86.0
aF205.0
aa(lp412
F115.0
aF136.0
aF135.0
aF202.0
aa(lp413
F131.0
aF139.0
aF146.0
aF181.0
aa(lp414
F17.0
aF232.0
aF43.0
aF317.0
aa(lp415
F86.0
aF224.0
aF107.0
aF298.0
aa(lp416
F101.0
aF220.0
aF115.0
aF256.0
aa(lp417
F53.0
aF326.0
aF70.0
aF375.0
aa(lp418
F68.0
aF317.0
aF93.0
aF375.0
aaaF0.845
aa(lp419
(lp420
S'009257'
p421
ag4
ag5
aF296.2
aF89.9
aF320.1
aF157.3
aa(lp422
(lp423
F128.0
aF1.0
aF211.0
aF206.0
aaaF0.844
aa(lp424
(lp425
S'004880'
p426
ag4
ag5
aF211.5
aF186.2
aF263.6
aF257.0
aa(lp427
(lp428
F397.0
aF211.0
aF419.0
aF284.0
aa(lp429
F387.0
aF215.0
aF402.0
aF271.0
aaaF0.843
aa(lp430
(lp431
S'002231'
p432
ag4
ag5
aF277.1
aF19.3
aF457.6
aF353.7
aa(lp433
(lp434
F256.0
aF1.0
aF349.0
aF192.0
aa(lp435
F309.0
aF136.0
aF466.0
aF275.0
aa(lp436
F287.0
aF274.0
aF433.0
aF375.0
aa(lp437
F174.0
aF312.0
aF280.0
aF375.0
aa(lp438
F2.0
aF240.0
aF179.0
aF340.0
aa(lp439
F1.0
aF89.0
aF151.0
aF240.0
aa(lp440
F112.0
aF1.0
aF213.0
aF137.0
aa(lp441
F146.0
aF44.0
aF297.0
aF287.0
aaaF0.84
aa(lp442
(lp443
S'006426'
p444
ag4
ag5
aF127.5
aF113.9
aF155.1
aF179.1
aa(lp445
aF0.839
aa(lp446
(lp447
S'001602'
p448
ag4
ag5
aF9.2
aF111.5
aF261.7
aF480.7
aa(lp449
(lp450
F252.0
aF2.0
aF351.0
aF365.0
aa(lp451
F112.0
aF3.0
aF225.0
aF203.0
aaaF0.837
aa(lp452
(lp453
S'009561'
p454
ag4
ag5
aF373.4
aF65.0
aF411.9
aF137.4
aa(lp455
aF0.836
aa(lp456
(lp457
S'006905'
p458
ag4
ag5
aF10.6
aF1.0
aF151.7
aF343.2
aa(lp459
aF0.835
aa(lp460
(lp461
S'005587'
p462
ag4
ag5
aF134.5
aF204.9
aF158.9
aF264.3
aa(lp463
aF0.826
aa(lp464
(lp465
S'009622'
p466
ag4
ag5
aF436.9
aF265.0
aF470.1
aF321.5
aa(lp467
aF0.826
aa(lp468
(lp469
S'001478'
p470
ag4
ag5
aF45.2
aF220.8
aF115.0
aF312.5
aa(lp471
aF0.825
aa(lp472
(lp473
S'003067'
p474
ag4
ag5
aF41.6
aF43.0
aF328.0
aF318.9
aa(lp475
(lp476
F374.0
aF68.0
aF436.0
aF270.0
aa(lp477
F301.0
aF63.0
aF375.0
aF268.0
aa(lp478
F218.0
aF69.0
aF289.0
aF268.0
aa(lp479
F127.0
aF62.0
aF204.0
aF271.0
aa(lp480
F70.0
aF73.0
aF127.0
aF271.0
aaaF0.822
aa(lp481
(lp482
S'003697'
p483
ag4
ag5
aF91.2
aF81.1
aF286.1
aF353.7
aa(lp484
(lp485
F213.0
aF195.0
aF336.0
aF375.0
aa(lp486
F91.0
aF189.0
aF217.0
aF342.0
aa(lp487
F58.0
aF132.0
aF219.0
aF375.0
aaaF0.82
aa(lp488
(lp489
S'000369'
p490
ag4
ag5
aF234.7
aF232.0
aF257.9
aF291.6
aa(lp491
(lp492
F181.0
aF259.0
aF216.0
aF375.0
aaaF0.816
aa(lp493
(lp494
S'006516'
p495
ag4
ag5
aF344.6
aF51.2
aF365.1
aF91.4
aa(lp496
aF0.813
aa(lp497
(lp498
S'005009'
p499
ag4
ag5
aF77.5
aF11.4
aF162.8
aF302.0
aa(lp500
aF0.813
aa(lp501
(lp502
S'006003'
p503
ag4
ag5
aF283.5
aF66.6
aF342.1
aF250.0
aa(lp504
(lp505
F205.0
aF77.0
aF333.0
aF364.0
aa(lp506
F51.0
aF62.0
aF169.0
aF356.0
aaaF0.808
aa(lp507
(lp508
S'005196'
p509
ag4
ag5
aF381.0
aF8.2
aF399.6
aF65.4
aa(lp510
aF0.805
aa(lp511
(lp512
S'001569'
p513
ag4
ag5
aF200.8
aF352.3
aF245.7
aF469.0
aa(lp514
(lp515
F5.0
aF274.0
aF43.0
aF394.0
aa(lp516
F60.0
aF312.0
aF114.0
aF411.0
aaaF0.805
aa(lp517
(lp518
S'000390'
p519
ag4
ag5
aF87.1
aF84.9
aF112.3
aF151.8
aa(lp520
aF0.799
aa(lp521
(lp522
S'004355'
p523
ag4
ag5
aF56.4
aF299.3
aF112.6
aF375.0
aa(lp524
(lp525
F234.0
aF195.0
aF278.0
aF348.0
aa(lp526
F184.0
aF182.0
aF226.0
aF324.0
aaaF0.796
aa(lp527
(lp528
S'002773'
p529
ag4
ag5
aF185.1
aF92.5
aF201.4
aF145.6
aa(lp530
(lp531
F460.0
aF216.0
aF475.0
aF276.0
aa(lp532
F475.0
aF216.0
aF493.0
aF273.0
aa(lp533
F10.0
aF14.0
aF36.0
aF105.0
aa(lp534
F75.0
aF50.0
aF97.0
aF120.0
aa(lp535
F143.0
aF64.0
aF157.0
aF132.0
aa(lp536
F153.0
aF78.0
aF170.0
aF135.0
aa(lp537
F39.0
aF123.0
aF65.0
aF206.0
aa(lp538
F61.0
aF128.0
aF86.0
aF205.0
aa(lp539
F115.0
aF136.0
aF135.0
aF202.0
aa(lp540
F131.0
aF139.0
aF146.0
aF181.0
aa(lp541
F17.0
aF232.0
aF43.0
aF317.0
aa(lp542
F86.0
aF224.0
aF107.0
aF298.0
aa(lp543
F101.0
aF220.0
aF115.0
aF256.0
aa(lp544
F53.0
aF326.0
aF70.0
aF375.0
aa(lp545
F68.0
aF317.0
aF93.0
aF375.0
aaaF0.79
aa(lp546
(lp547
S'005009'
p548
ag4
ag5
aF254.8
aF188.9
aF328.1
aF335.3
aa(lp549
aF0.787
aa(lp550
(lp551
S'002429'
p552
ag4
ag5
aF235.2
aF305.4
aF282.4
aF354.5
aa(lp553
(lp554
F329.0
aF137.0
aF369.0
aF266.0
aa(lp555
F217.0
aF161.0
aF268.0
aF285.0
aaaF0.785
aa(lp556
(lp557
S'009582'
p558
ag4
ag5
aF409.5
aF185.8
aF495.4
aF347.1
aa(lp559
aF0.783
aa(lp560
(lp561
S'005635'
p562
ag4
ag5
aF308.2
aF53.2
aF366.7
aF200.4
aa(lp563
(lp564
F1.0
aF107.0
aF144.0
aF375.0
aa(lp565
F122.0
aF185.0
aF199.0
aF375.0
aa(lp566
F185.0
aF195.0
aF311.0
aF375.0
aa(lp567
F302.0
aF113.0
aF423.0
aF375.0
aa(lp568
F105.0
aF81.0
aF206.0
aF220.0
aa(lp569
F201.0
aF60.0
aF303.0
aF274.0
aa(lp570
F284.0
aF58.0
aF362.0
aF269.0
aa(lp571
F387.0
aF63.0
aF431.0
aF138.0
aa(lp572
F429.0
aF69.0
aF443.0
aF138.0
aa(lp573
F380.0
aF67.0
aF395.0
aF113.0
aa(lp574
F93.0
aF87.0
aF122.0
aF189.0
aaaF0.78
aa(lp575
(lp576
S'008505'
p577
ag4
ag5
aF156.5
aF236.6
aF219.9
aF341.6
aa(lp578
aF0.773
aa(lp579
(lp580
S'008925'
p581
ag4
ag5
aF222.9
aF22.8
aF466.2
aF304.6
aa(lp582
(lp583
F75.0
aF61.0
aF104.0
aF144.0
aa(lp584
F153.0
aF64.0
aF190.0
aF243.0
aa(lp585
F243.0
aF67.0
aF261.0
aF241.0
aa(lp586
F351.0
aF68.0
aF386.0
aF241.0
aa(lp587
F483.0
aF115.0
aF500.0
aF311.0
aa(lp588
F452.0
aF57.0
aF488.0
aF268.0
aa(lp589
F366.0
aF57.0
aF412.0
aF270.0
aa(lp590
F392.0
aF40.0
aF461.0
aF317.0
aa(lp591
F291.0
aF40.0
aF354.0
aF313.0
aa(lp592
F193.0
aF39.0
aF259.0
aF313.0
aa(lp593
F29.0
aF50.0
aF86.0
aF272.0
aa(lp594
F82.0
aF35.0
aF150.0
aF312.0
aa(lp595
F1.0
aF36.0
aF39.0
aF304.0
aaaF0.764
aa(lp596
(lp597
S'007871'
p598
ag4
ag5
aF26.6
aF335.6
aF71.4
aF375.0
aa(lp599
aF0.763
aa(lp600
(lp601
S'006072'
p602
ag4
ag5
aF215.6
aF173.1
aF243.0
aF251.7
aa(lp603
(lp604
F233.0
aF15.0
aF309.0
aF336.0
aa(lp605
F151.0
aF102.0
aF252.0
aF335.0
aaaF0.763
aa(lp606
(lp607
S'009010'
p608
ag4
ag5
aF189.6
aF269.8
aF235.5
aF355.7
aa(lp609
aF0.749
aa(lp610
(lp611
S'003842'
p612
ag4
ag5
aF72.3
aF15.6
aF177.9
aF206.6
aa(lp613
(lp614
F44.0
aF15.0
aF201.0
aF497.0
aaaF0.749
aa(lp615
(lp616
S'004197'
p617
ag4
ag5
aF148.0
aF196.8
aF188.8
aF267.0
aa(lp618
aF0.743
aa(lp619
(lp620
S'005428'
p621
ag4
ag5
aF194.4
aF4.2
aF334.4
aF278.8
aa(lp622
(lp623
F1.0
aF1.0
aF217.0
aF362.0
aaaF0.741
aa(lp624
(lp625
S'001631'
p626
ag4
ag5
aF343.5
aF246.9
aF375.0
aF379.8
aa(lp627
(lp628
F76.0
aF6.0
aF201.0
aF498.0
aaaF0.737
aa(lp629
(lp630
S'005009'
p631
ag4
ag5
aF190.0
aF178.8
aF247.6
aF311.5
aa(lp632
aF0.733
aa(lp633
(lp634
S'009798'
p635
ag4
ag5
aF292.1
aF133.3
aF311.6
aF201.0
aa(lp636
(lp637
F208.0
aF228.0
aF225.0
aF294.0
aa(lp638
F167.0
aF202.0
aF192.0
aF278.0
aa(lp639
F231.0
aF172.0
aF246.0
aF208.0
aaaF0.725
aa(lp640
(lp641
S'008233'
p642
ag4
ag5
aF452.6
aF74.0
aF487.8
aF128.9
aa(lp643
aF0.72
aa(lp644
(lp645
S'009366'
p646
ag4
ag5
aF126.9
aF1.0
aF318.3
aF492.8
aa(lp647
(lp648
F14.0
aF4.0
aF158.0
aF469.0
aaaF0.719
aa(lp649
(lp650
S'004733'
p651
ag4
ag5
aF241.4
aF137.0
aF306.4
aF322.3
aa(lp652
aF0.715
aa(lp653
(lp654
S'009570'
p655
ag4
ag5
aF51.1
aF46.6
aF121.2
aF245.4
aa(lp656
(lp657
F69.0
aF94.0
aF117.0
aF213.0
aa(lp658
F42.0
aF88.0
aF89.0
aF207.0
aa(lp659
F6.0
aF85.0
aF54.0
aF204.0
aaaF0.712
aa(lp660
(lp661
S'000745'
p662
ag4
ag5
aF7.6
aF76.8
aF60.2
aF152.3
aa(lp663
aF0.712
aa(lp664
(lp665
S'004175'
p666
ag4
ag5
aF394.8
aF231.9
aF500.0
aF341.3
aa(lp667
aF0.708
aa(lp668
(lp669
S'003590'
p670
ag4
ag5
aF316.6
aF286.3
aF339.4
aF333.8
aa(lp671
(lp672
F194.0
aF193.0
aF212.0
aF261.0
aaaF0.707
aa(lp673
(lp674
S'009012'
p675
ag4
ag5
aF145.5
aF11.9
aF270.6
aF206.8
aa(lp676
(lp677
F114.0
aF1.0
aF277.0
aF499.0
aa(lp678
F292.0
aF27.0
aF367.0
aF217.0
aaaF0.699
aa(lp679
(lp680
S'006831'
p681
ag4
ag5
aF312.6
aF10.7
aF339.0
aF82.2
aa(lp682
aF0.695
aa(lp683
(lp684
S'005941'
p685
ag4
ag5
aF58.5
aF185.5
aF88.8
aF247.2
aa(lp686
aF0.693
aa(lp687
(lp688
S'008626'
p689
ag4
ag5
aF175.7
aF259.0
aF200.4
aF301.7
aa(lp690
aF0.687
aa(lp691
(lp692
S'000280'
p693
ag4
ag5
aF434.2
aF134.2
aF474.8
aF217.5
aa(lp694
(lp695
F454.0
aF153.0
aF477.0
aF213.0
aa(lp696
F480.0
aF107.0
aF500.0
aF173.0
aa(lp697
F438.0
aF127.0
aF458.0
aF164.0
aaaF0.685
aa(lp698
(lp699
S'001652'
p700
ag4
ag5
aF287.5
aF327.4
aF356.6
aF500.0
aa(lp701
(lp702
F205.0
aF290.0
aF299.0
aF500.0
aa(lp703
F50.0
aF267.0
aF134.0
aF477.0
aaaF0.684
aa(lp704
(lp705
S'008134'
p706
ag4
ag5
aF123.1
aF175.7
aF321.1
aF315.9
aa(lp707
(lp708
F19.0
aF8.0
aF71.0
aF147.0
aa(lp709
F73.0
aF10.0
aF122.0
aF146.0
aa(lp710
F124.0
aF9.0
aF172.0
aF147.0
aa(lp711
F178.0
aF20.0
aF219.0
aF147.0
aa(lp712
F222.0
aF22.0
aF267.0
aF148.0
aa(lp713
F272.0
aF22.0
aF322.0
aF149.0
aa(lp714
F327.0
aF22.0
aF373.0
aF147.0
aa(lp715
F377.0
aF21.0
aF423.0
aF147.0
aa(lp716
F429.0
aF22.0
aF477.0
aF149.0
aa(lp717
F20.0
aF195.0
aF65.0
aF319.0
aa(lp718
F69.0
aF195.0
aF114.0
aF319.0
aa(lp719
F121.0
aF198.0
aF163.0
aF318.0
aa(lp720
F173.0
aF196.0
aF213.0
aF320.0
aa(lp721
F220.0
aF196.0
aF263.0
aF318.0
aa(lp722
F271.0
aF182.0
aF316.0
aF304.0
aa(lp723
F325.0
aF196.0
aF367.0
aF318.0
aa(lp724
F373.0
aF193.0
aF417.0
aF316.0
aa(lp725
F426.0
aF195.0
aF468.0
aF317.0
aaaF0.679
aa(lp726
(lp727
S'008238'
p728
ag4
ag5
aF339.0
aF236.5
aF381.0
aF292.6
aa(lp729
aF0.679
aa(lp730
(lp731
S'001740'
p732
ag4
ag5
aF227.9
aF35.2
aF330.0
aF187.2
aa(lp733
aF0.672
aa(lp734
(lp735
S'001913'
p736
ag4
ag5
aF478.2
aF128.7
aF500.0
aF189.8
aa(lp737
aF0.671
aa(lp738
(lp739
S'009204'
p740
ag4
ag5
aF418.6
aF151.9
aF489.1
aF241.3
aa(lp741
aF0.667
aa(lp742
(lp743
S'002499'
p744
ag4
ag5
aF218.9
aF158.7
aF253.6
aF228.9
aa(lp745
aF0.654
aa(lp746
(lp747
S'001949'
p748
ag4
ag5
aF294.0
aF280.8
aF312.4
aF310.8
aa(lp749
aF0.652
aa(lp750
(lp751
S'001731'
p752
ag4
ag5
aF349.4
aF32.3
aF379.3
aF121.0
aa(lp753
aF0.641
aa(lp754
(lp755
S'001047'
p756
ag4
ag5
aF38.9
aF194.5
aF60.8
aF244.2
aa(lp757
(lp758
F65.0
aF14.0
aF79.0
aF61.0
aa(lp759
F92.0
aF15.0
aF107.0
aF61.0
aaaF0.633
aa(lp760
(lp761
S'002857'
p762
ag4
ag5
aF70.0
aF180.8
aF106.2
aF251.9
aa(lp763
(lp764
F43.0
aF171.0
aF114.0
aF394.0
aaaF0.619
aa(lp765
(lp766
S'004543'
p767
ag4
ag5
aF67.1
aF303.4
aF85.5
aF331.4
aa(lp768
aF0.617
aa(lp769
(lp770
S'007456'
p771
ag4
ag5
aF107.6
aF36.3
aF214.5
aF291.5
aa(lp772
(lp773
F93.0
aF63.0
aF168.0
aF168.0
aa(lp774
F123.0
aF55.0
aF185.0
aF170.0
aa(lp775
F277.0
aF29.0
aF331.0
aF122.0
aa(lp776
F223.0
aF57.0
aF288.0
aF160.0
aa(lp777
F153.0
aF92.0
aF241.0
aF287.0
aa(lp778
F322.0
aF43.0
aF433.0
aF291.0
aaaF0.617
aa(lp779
(lp780
S'008066'
p781
ag4
ag5
aF144.8
aF162.6
aF185.9
aF237.1
aa(lp782
aF0.615
aa(lp783
(lp784
S'000976'
p785
ag4
ag5
aF175.2
aF56.5
aF321.7
aF380.5
aa(lp786
aF0.614
aa(lp787
(lp788
S'006003'
p789
ag4
ag5
aF74.1
aF58.4
aF141.5
aF226.7
aa(lp790
(lp791
F205.0
aF77.0
aF333.0
aF364.0
aa(lp792
F51.0
aF62.0
aF169.0
aF356.0
aaaF0.608
aa(lp793
(lp794
S'006546'
p795
ag4
ag5
aF208.4
aF185.4
aF233.1
aF261.7
aa(lp796
aF0.596
aa(lp797
(lp798
S'006092'
p799
ag4
ag5
aF170.8
aF282.1
aF232.7
aF413.5
aa(lp800
aF0.591
aa(lp801
(lp802
S'008134'
p803
ag4
ag5
aF212.3
aF25.1
aF418.2
aF156.0
aa(lp804
(lp805
F19.0
aF8.0
aF71.0
aF147.0
aa(lp806
F73.0
aF10.0
aF122.0
aF146.0
aa(lp807
F124.0
aF9.0
aF172.0
aF147.0
aa(lp808
F178.0
aF20.0
aF219.0
aF147.0
aa(lp809
F222.0
aF22.0
aF267.0
aF148.0
aa(lp810
F272.0
aF22.0
aF322.0
aF149.0
aa(lp811
F327.0
aF22.0
aF373.0
aF147.0
aa(lp812
F377.0
aF21.0
aF423.0
aF147.0
aa(lp813
F429.0
aF22.0
aF477.0
aF149.0
aa(lp814
F20.0
aF195.0
aF65.0
aF319.0
aa(lp815
F69.0
aF195.0
aF114.0
aF319.0
aa(lp816
F121.0
aF198.0
aF163.0
aF318.0
aa(lp817
F173.0
aF196.0
aF213.0
aF320.0
aa(lp818
F220.0
aF196.0
aF263.0
aF318.0
aa(lp819
F271.0
aF182.0
aF316.0
aF304.0
aa(lp820
F325.0
aF196.0
aF367.0
aF318.0
aa(lp821
F373.0
aF193.0
aF417.0
aF316.0
aa(lp822
F426.0
aF195.0
aF468.0
aF317.0
aaaF0.59
aa(lp823
(lp824
S'004211'
p825
ag4
ag5
aF175.2
aF29.1
aF361.4
aF443.3
aa(lp826
aF0.58
aa(lp827
(lp828
S'009628'
p829
ag4
ag5
aF447.4
aF180.8
aF465.4
aF232.9
aa(lp830
aF0.58
aa(lp831
(lp832
S'000414'
p833
ag4
ag5
aF271.1
aF145.2
aF299.4
aF219.1
aa(lp834
(lp835
F263.0
aF100.0
aF300.0
aF215.0
aaaF0.577
aa(lp836
(lp837
S'000151'
p838
ag4
ag5
aF202.1
aF314.0
aF354.9
aF493.2
aa(lp839
(lp840
F153.0
aF136.0
aF375.0
aF264.0
aaaF0.572
aa(lp841
(lp842
S'008245'
p843
ag4
ag5
aF384.6
aF297.3
aF412.7
aF352.3
aa(lp844
aF0.572
aa(lp845
(lp846
S'001781'
p847
ag4
ag5
aF285.5
aF146.8
aF311.8
aF234.0
aa(lp848
aF0.57
aa(lp849
(lp850
S'007442'
p851
ag4
ag5
aF332.3
aF244.2
aF375.0
aF350.2
aa(lp852
aF0.56
aa(lp853
(lp854
S'002189'
p855
ag4
ag5
aF440.7
aF202.8
aF493.9
aF307.2
aa(lp856
aF0.559
aa(lp857
(lp858
S'003771'
p859
ag4
ag5
aF136.0
aF192.0
aF207.5
aF341.8
aa(lp860
aF0.55
aa(lp861
(lp862
S'006075'
p863
ag4
ag5
aF346.1
aF279.8
aF392.1
aF362.7
aa(lp864
aF0.55
aa(lp865
(lp866
S'008134'
p867
ag4
ag5
aF380.1
aF33.2
aF429.5
aF87.4
aa(lp868
(lp869
F19.0
aF8.0
aF71.0
aF147.0
aa(lp870
F73.0
aF10.0
aF122.0
aF146.0
aa(lp871
F124.0
aF9.0
aF172.0
aF147.0
aa(lp872
F178.0
aF20.0
aF219.0
aF147.0
aa(lp873
F222.0
aF22.0
aF267.0
aF148.0
aa(lp874
F272.0
aF22.0
aF322.0
aF149.0
aa(lp875
F327.0
aF22.0
aF373.0
aF147.0
aa(lp876
F377.0
aF21.0
aF423.0
aF147.0
aa(lp877
F429.0
aF22.0
aF477.0
aF149.0
aa(lp878
F20.0
aF195.0
aF65.0
aF319.0
aa(lp879
F69.0
aF195.0
aF114.0
aF319.0
aa(lp880
F121.0
aF198.0
aF163.0
aF318.0
aa(lp881
F173.0
aF196.0
aF213.0
aF320.0
aa(lp882
F220.0
aF196.0
aF263.0
aF318.0
aa(lp883
F271.0
aF182.0
aF316.0
aF304.0
aa(lp884
F325.0
aF196.0
aF367.0
aF318.0
aa(lp885
F373.0
aF193.0
aF417.0
aF316.0
aa(lp886
F426.0
aF195.0
aF468.0
aF317.0
aaaF0.55
aa(lp887
(lp888
S'007770'
p889
ag4
ag5
aF125.0
aF150.0
aF320.8
aF300.1
aa(lp890
aF0.547
aa(lp891
(lp892
S'002188'
p893
ag4
ag5
aF285.3
aF7.0
aF323.8
aF131.6
aa(lp894
aF0.541
aa(lp895
(lp896
S'006360'
p897
ag4
ag5
aF412.4
aF281.9
aF486.6
aF367.9
aa(lp898
(lp899
F226.0
aF243.0
aF263.0
aF368.0
aaaF0.535
aa(lp900
(lp901
S'006787'
p902
ag4
ag5
aF146.5
aF149.1
aF170.8
aF208.4
aa(lp903
aF0.534
aa(lp904
(lp905
S'003697'
p906
ag4
ag5
aF445.6
aF235.7
aF500.0
aF372.4
aa(lp907
(lp908
F213.0
aF195.0
aF336.0
aF375.0
aa(lp909
F91.0
aF189.0
aF217.0
aF342.0
aa(lp910
F58.0
aF132.0
aF219.0
aF375.0
aaaF0.53
aa(lp911
(lp912
S'001167'
p913
ag4
ag5
aF11.6
aF89.9
aF44.7
aF269.0
aa(lp914
(lp915
F1.0
aF94.0
aF43.0
aF357.0
aaaF0.53
aa(lp916
(lp917
S'007744'
p918
ag4
ag5
aF248.1
aF132.1
aF277.0
aF208.7
aa(lp919
(lp920
F443.0
aF160.0
aF489.0
aF305.0
aa(lp921
F378.0
aF164.0
aF440.0
aF307.0
aa(lp922
F384.0
aF131.0
aF439.0
aF225.0
aa(lp923
F341.0
aF154.0
aF373.0
aF293.0
aa(lp924
F309.0
aF133.0
aF355.0
aF313.0
aa(lp925
F278.0
aF153.0
aF308.0
aF293.0
aa(lp926
F238.0
aF126.0
aF287.0
aF312.0
aa(lp927
F219.0
aF174.0
aF246.0
aF295.0
aa(lp928
F173.0
aF140.0
aF224.0
aF309.0
aa(lp929
F140.0
aF168.0
aF180.0
aF294.0
aa(lp930
F93.0
aF142.0
aF140.0
aF308.0
aa(lp931
F38.0
aF170.0
aF82.0
aF307.0
aa(lp932
F1.0
aF209.0
aF19.0
aF336.0
aa(lp933
F4.0
aF170.0
aF36.0
aF286.0
aaaF0.529
aa(lp934
(lp935
S'001609'
p936
ag4
ag5
aF159.2
aF76.6
aF200.4
aF147.1
aa(lp937
aF0.528
aa(lp938
(lp939
S'001602'
p940
ag4
ag5
aF288.2
aF4.1
aF351.0
aF112.1
aa(lp941
(lp942
F252.0
aF2.0
aF351.0
aF365.0
aa(lp943
F112.0
aF3.0
aF225.0
aF203.0
aaaF0.527
aa(lp944
(lp945
S'006941'
p946
ag4
ag5
aF174.5
aF197.9
aF209.0
aF274.2
aa(lp947
aF0.526
aa(lp948
(lp949
S'003067'
p950
ag4
ag5
aF215.2
aF82.5
aF248.5
aF231.4
aa(lp951
(lp952
F374.0
aF68.0
aF436.0
aF270.0
aa(lp953
F301.0
aF63.0
aF375.0
aF268.0
aa(lp954
F218.0
aF69.0
aF289.0
aF268.0
aa(lp955
F127.0
aF62.0
aF204.0
aF271.0
aa(lp956
F70.0
aF73.0
aF127.0
aF271.0
aaaF0.522
aa(lp957
(lp958
S'000953'
p959
ag4
ag5
aF385.5
aF98.4
aF401.0
aF139.2
aa(lp960
aF0.517
aa(lp961
(lp962
S'008991'
p963
ag4
ag5
aF66.6
aF103.4
aF92.0
aF145.4
aa(lp964
aF0.516
aa(lp965
(lp966
S'007862'
p967
ag4
ag5
aF474.0
aF49.2
aF492.4
aF87.5
aa(lp968
(lp969
F458.0
aF52.0
aF475.0
aF90.0
aa(lp970
F479.0
aF45.0
aF499.0
aF80.0
aa(lp971
F438.0
aF59.0
aF447.0
aF85.0
aa(lp972
F423.0
aF53.0
aF439.0
aF88.0
aaaF0.516
aa(lp973
(lp974
S'001007'
p975
ag4
ag5
aF418.7
aF5.6
aF500.0
aF236.0
aa(lp976
aF0.507
aa(lp977
(lp978
S'000114'
p979
ag4
ag5
aF198.9
aF2.2
aF261.8
aF106.4
aa(lp980
aF0.501
aa(lp981
(lp982
S'006500'
p983
ag4
ag5
aF91.8
aF107.1
aF110.1
aF157.0
aa(lp984
(lp985
F288.0
aF224.0
aF330.0
aF328.0
aa(lp986
F233.0
aF216.0
aF270.0
aF314.0
aa(lp987
F186.0
aF207.0
aF224.0
aF297.0
aa(lp988
F146.0
aF200.0
aF183.0
aF285.0
aa(lp989
F111.0
aF195.0
aF144.0
aF273.0
aa(lp990
F69.0
aF161.0
aF108.0
aF266.0
aa(lp991
F34.0
aF156.0
aF72.0
aF257.0
aa(lp992
F11.0
aF155.0
aF40.0
aF250.0
aa(lp993
F1.0
aF151.0
aF19.0
aF241.0
aa(lp994
F371.0
aF95.0
aF415.0
aF217.0
aa(lp995
F326.0
aF94.0
aF367.0
aF213.0
aa(lp996
F289.0
aF94.0
aF327.0
aF203.0
aa(lp997
F252.0
aF92.0
aF290.0
aF202.0
aa(lp998
F225.0
aF95.0
aF257.0
aF188.0
aa(lp999
F190.0
aF93.0
aF225.0
aF191.0
aa(lp1000
F167.0
aF96.0
aF195.0
aF185.0
aa(lp1001
F141.0
aF94.0
aF169.0
aF186.0
aa(lp1002
F107.0
aF98.0
aF142.0
aF179.0
aa(lp1003
F290.0
aF171.0
aF332.0
aF231.0
aa(lp1004
F210.0
aF161.0
aF247.0
aF282.0
aa(lp1005
F154.0
aF158.0
aF197.0
aF232.0
aa(lp1006
F110.0
aF153.0
aF149.0
aF224.0
aa(lp1007
F86.0
aF100.0
aF114.0
aF178.0
aa(lp1008
F63.0
aF98.0
aF94.0
aF176.0
aa(lp1009
F46.0
aF99.0
aF69.0
aF151.0
aa(lp1010
F27.0
aF96.0
aF51.0
aF149.0
aa(lp1011
F12.0
aF96.0
aF33.0
aF146.0
aa(lp1012
F1.0
aF99.0
aF16.0
aF170.0
aa(lp1013
F384.0
aF1.0
aF429.0
aF128.0
aa(lp1014
F338.0
aF1.0
aF382.0
aF128.0
aa(lp1015
F295.0
aF1.0
aF344.0
aF132.0
aa(lp1016
F252.0
aF1.0
aF288.0
aF128.0
aa(lp1017
F213.0
aF1.0
aF249.0
aF125.0
aa(lp1018
F177.0
aF3.0
aF213.0
aF123.0
aa(lp1019
F149.0
aF6.0
aF179.0
aF124.0
aa(lp1020
F127.0
aF9.0
aF156.0
aF125.0
aa(lp1021
F106.0
aF11.0
aF132.0
aF121.0
aa(lp1022
F81.0
aF11.0
aF111.0
aF119.0
aa(lp1023
F61.0
aF11.0
aF88.0
aF120.0
aa(lp1024
F36.0
aF18.0
aF65.0
aF100.0
aa(lp1025
F13.0
aF19.0
aF40.0
aF98.0
aaaF0.499
aa(lp1026
(lp1027
S'001631'
p1028
ag4
ag5
aF110.9
aF7.4
aF169.5
aF142.1
aa(lp1029
(lp1030
F76.0
aF6.0
aF201.0
aF498.0
aaaF0.495
aa(lp1031
(lp1032
S'000272'
p1033
ag4
ag5
aF249.0
aF339.4
aF307.2
aF416.4
aa(lp1034
aF0.494
aa(lp1035
(lp1036
S'008123'
p1037
ag4
ag5
aF212.2
aF28.8
aF285.2
aF181.1
aa(lp1038
aF0.494
aa(lp1039
(lp1040
S'008022'
p1041
ag4
ag5
aF189.3
aF245.8
aF239.3
aF322.0
aa(lp1042
aF0.493
aa(lp1043
(lp1044
S'002575'
p1045
ag4
ag5
aF453.5
aF313.3
aF493.6
aF377.2
aa(lp1046
(lp1047
F415.0
aF281.0
aF436.0
aF355.0
aa(lp1048
F434.0
aF311.0
aF459.0
aF380.0
aa(lp1049
F316.0
aF314.0
aF364.0
aF380.0
aaaF0.491
aa(lp1050
(lp1051
S'000217'
p1052
ag4
ag5
aF137.5
aF136.1
aF158.2
aF182.1
aa(lp1053
aF0.488
aa(lp1054
(lp1055
S'009742'
p1056
ag4
ag5
aF9.9
aF110.4
aF79.7
aF292.7
aa(lp1057
aF0.48
aa(lp1058
(lp1059
S'005313'
p1060
ag4
ag5
aF146.7
aF134.1
aF169.2
aF190.5
aa(lp1061
aF0.479
aa(lp1062
(lp1063
S'009366'
p1064
ag4
ag5
aF33.0
aF1.0
aF136.5
aF176.5
aa(lp1065
(lp1066
F14.0
aF4.0
aF158.0
aF469.0
aaaF0.476
aa(lp1067
(lp1068
S'005237'
p1069
ag4
ag5
aF335.8
aF208.2
aF374.4
aF269.1
aa(lp1070
aF0.455
aa(lp1071
(lp1072
S'009544'
p1073
ag4
ag5
aF306.9
aF57.7
aF355.6
aF152.4
aa(lp1074
aF0.454
aa(lp1075
(lp1076
S'008583'
p1077
ag4
ag5
aF350.1
aF158.0
aF376.0
aF232.3
aa(lp1078
(lp1079
F403.0
aF163.0
aF433.0
aF241.0
aa(lp1080
F366.0
aF165.0
aF393.0
aF242.0
aa(lp1081
F340.0
aF154.0
aF366.0
aF235.0
aa(lp1082
F330.0
aF149.0
aF344.0
aF198.0
aaaF0.451
aa(lp1083
(lp1084
S'000984'
p1085
ag4
ag5
aF58.8
aF1.0
aF204.6
aF404.4
aa(lp1086
aF0.451
aa(lp1087
(lp1088
S'008520'
p1089
ag4
ag5
aF271.7
aF125.0
aF293.5
aF184.5
aa(lp1090
(lp1091
F288.0
aF222.0
aF324.0
aF328.0
aa(lp1092
F253.0
aF114.0
aF278.0
aF182.0
aa(lp1093
F299.0
aF1.0
aF313.0
aF27.0
aaaF0.445
aa(lp1094
(lp1095
S'009660'
p1096
ag4
ag5
aF152.5
aF218.6
aF210.4
aF364.1
aa(lp1097
aF0.445
aa(lp1098
(lp1099
S'002711'
p1100
ag4
ag5
aF347.6
aF225.5
aF385.0
aF289.9
aa(lp1101
(lp1102
F1.0
aF248.0
aF64.0
aF375.0
aaaF0.443
aa(lp1103
(lp1104
S'008136'
p1105
ag4
ag5
aF7.1
aF112.2
aF32.7
aF206.3
aa(lp1106
aF0.443
aa(lp1107
(lp1108
S'005237'
p1109
ag4
ag5
aF234.2
aF174.1
aF262.4
aF220.8
aa(lp1110
aF0.439
aa(lp1111
(lp1112
S'006195'
p1113
ag4
ag5
aF12.5
aF356.5
aF40.2
aF433.8
aa(lp1114
(lp1115
F55.0
aF365.0
aF72.0
aF419.0
aa(lp1116
F72.0
aF366.0
aF85.0
aF419.0
aa(lp1117
F29.0
aF364.0
aF46.0
aF419.0
aa(lp1118
F284.0
aF331.0
aF299.0
aF366.0
aaaF0.437
aa(lp1119
(lp1120
S'002560'
p1121
ag4
ag5
aF143.9
aF22.6
aF280.7
aF380.7
aa(lp1122
(lp1123
F8.0
aF1.0
aF156.0
aF394.0
aaaF0.436
aa(lp1124
(lp1125
S'004134'
p1126
ag4
ag5
aF129.3
aF4.9
aF156.4
aF110.0
aa(lp1127
(lp1128
F105.0
aF3.0
aF143.0
aF111.0
aa(lp1129
F147.0
aF3.0
aF172.0
aF103.0
aa(lp1130
F184.0
aF1.0
aF212.0
aF103.0
aa(lp1131
F219.0
aF1.0
aF238.0
aF100.0
aa(lp1132
F243.0
aF1.0
aF276.0
aF93.0
aa(lp1133
F326.0
aF298.0
aF394.0
aF400.0
aa(lp1134
F324.0
aF243.0
aF408.0
aF380.0
aa(lp1135
F125.0
aF312.0
aF231.0
aF349.0
aa(lp1136
F195.0
aF292.0
aF299.0
aF323.0
aaaF0.425
aa(lp1137
(lp1138
S'003389'
p1139
ag4
ag5
aF425.1
aF235.1
aF471.4
aF308.3
aa(lp1140
aF0.423
aa(lp1141
(lp1142
S'003590'
p1143
ag4
ag5
aF207.1
aF200.7
aF223.9
aF253.0
aa(lp1144
(lp1145
F194.0
aF193.0
aF212.0
aF261.0
aaaF0.422
aa(lp1146
(lp1147
S'004739'
p1148
ag4
ag5
aF301.3
aF388.6
aF365.6
aF496.2
aa(lp1149
aF0.42
aa(lp1150
(lp1151
S'008414'
p1152
ag4
ag5
aF444.3
aF90.9
aF470.1
aF151.9
aa(lp1153
(lp1154
F38.0
aF102.0
aF47.0
aF118.0
aaaF0.416
aa(lp1155
(lp1156
S'008626'
p1157
ag4
ag5
aF199.1
aF125.4
aF218.9
aF162.4
aa(lp1158
aF0.415
aa(lp1159
(lp1160
S'008957'
p1161
ag4
ag5
aF480.8
aF315.7
aF498.5
aF372.7
aa(lp1162
aF0.409
aa(lp1163
(lp1164
S'001652'
p1165
ag4
ag5
aF2.7
aF352.2
aF47.3
aF465.6
aa(lp1166
(lp1167
F205.0
aF290.0
aF299.0
aF500.0
aa(lp1168
F50.0
aF267.0
aF134.0
aF477.0
aaaF0.407
aa(lp1169
(lp1170
S'003723'
p1171
ag4
ag5
aF391.9
aF179.0
aF418.1
aF233.4
aa(lp1172
aF0.403
aa(lp1173
(lp1174
S'006546'
p1175
ag4
ag5
aF260.5
aF189.5
aF286.5
aF252.6
aa(lp1176
aF0.403
aa(lp1177
(lp1178
S'004855'
p1179
ag4
ag5
aF260.2
aF258.7
aF287.9
aF325.8
aa(lp1180
aF0.399
aa(lp1181
(lp1182
S'000479'
p1183
ag4
ag5
aF17.1
aF430.2
aF98.9
aF493.4
aa(lp1184
aF0.397
aa(lp1185
a(lp1186
a(lp1187
a(lp1188
a(lp1189
a(lp1190
a(lp1191
a(lp1192
a(lp1193
a(lp1194
a(lp1195
a(lp1196
a(lp1197
a(lp1198
a(lp1199
a(lp1200
a(lp1201
a(lp1202
a(lp1203
a(lp1204
a(lp1205
a(lp1206
a(lp1207
a(lp1208
a(lp1209
a(lp1210
a(lp1211
a(lp1212
a(lp1213
a(lp1214
a(lp1215
a(lp1216
a(lp1217
a(lp1218
a(lp1219
a(lp1220
a(lp1221
a(lp1222
a(lp1223
a(lp1224
a(lp1225
a(lp1226
a(lp1227
a(lp1228
a(lp1229
a(lp1230
a(lp1231
a(lp1232
a(lp1233
a(lp1234
a(lp1235
a(lp1236
a(lp1237
a(lp1238
a(lp1239
a(lp1240
a(lp1241
a(lp1242
a(lp1243
a(lp1244
a(lp1245
a(lp1246
a(lp1247
a(lp1248
a(lp1249
a(lp1250
a(lp1251
a(lp1252
a(lp1253
a(lp1254
a(lp1255
a(lp1256
a(lp1257
a(lp1258
a(lp1259
a(lp1260
a(lp1261
a(lp1262
a(lp1263
a(lp1264
a(lp1265
a(lp1266
a(lp1267
a(lp1268
a(lp1269
a(lp1270
a(lp1271
a(lp1272
a(lp1273
a(lp1274
a(lp1275
a(lp1276
a(lp1277
a(lp1278
a(lp1279
a(lp1280
a(lp1281
a(lp1282
a(lp1283
a(lp1284
a(lp1285
a(lp1286
a(lp1287
a(lp1288
a(lp1289
a(lp1290
a(lp1291
a(lp1292
a(lp1293
a(lp1294
a(lp1295
a(lp1296
a(lp1297
a(lp1298
a(lp1299
a(lp1300
a(lp1301
a(lp1302
a(lp1303
a(lp1304
a(lp1305
a(lp1306
a(lp1307
a(lp1308
a(lp1309
a(lp1310
a(lp1311
a(lp1312
a(lp1313
a(lp1314
a(lp1315
a(lp1316
a(lp1317
a(lp1318
a(lp1319
a(lp1320
a(lp1321
a(lp1322
a(lp1323
a(lp1324
a(lp1325
a(lp1326
a(lp1327
a(lp1328
a(lp1329
a(lp1330
a(lp1331
a(lp1332
a(lp1333
a(lp1334
a(lp1335
a(lp1336
a(lp1337
a(lp1338
a(lp1339
a(lp1340
a(lp1341
a(lp1342
a(lp1343
a(lp1344
a(lp1345
a(lp1346
a(lp1347
a(lp1348
a(lp1349
a(lp1350
a(lp1351
a(lp1352
a(lp1353
a(lp1354
a(lp1355
a(lp1356
a(lp1357
a(lp1358
a(lp1359
a(lp1360
a(lp1361
a(lp1362
a(lp1363
a(lp1364
a(lp1365
a(lp1366
a(lp1367
a(lp1368
a(lp1369
a(lp1370
a(lp1371
a(lp1372
a(lp1373
a(lp1374
a(lp1375
a(lp1376
a(lp1377
a(lp1378
a(lp1379
a(lp1380
a(lp1381
a(lp1382
a(lp1383
a(lp1384
a(lp1385
a(lp1386
a(lp1387
a(lp1388
a(lp1389
a(lp1390
a(lp1391
a(lp1392
a(lp1393
a(lp1394
a(lp1395
a(lp1396
a(lp1397
a(lp1398
a(lp1399
a(lp1400
a(lp1401
a(lp1402
a(lp1403
a(lp1404
a(lp1405
a(lp1406
a(lp1407
a(lp1408
a(lp1409
a(lp1410
a(lp1411
a(lp1412
a(lp1413
a(lp1414
a(lp1415
a(lp1416
a(lp1417
a(lp1418
a(lp1419
a(lp1420
a(lp1421
a(lp1422
a(lp1423
a(lp1424
a(lp1425
a(lp1426
a(lp1427
a(lp1428
a(lp1429
a(lp1430
a(lp1431
a(lp1432
a(lp1433
a(lp1434
a(lp1435
a(lp1436
a(lp1437
a(lp1438
a(lp1439
a(lp1440
a(lp1441
a(lp1442
a(lp1443
a(lp1444
a(lp1445
a(lp1446
a(lp1447
a(lp1448
a(lp1449
a(lp1450
a(lp1451
a(lp1452
a(lp1453
a(lp1454
a(lp1455
a(lp1456
a(lp1457
a(lp1458
a(lp1459
a(lp1460
a(lp1461
a(lp1462
a(lp1463
a(lp1464
a(lp1465
a(lp1466
a(lp1467
a(lp1468
a(lp1469
a(lp1470
a(lp1471
a(lp1472
a(lp1473
a(lp1474
a(lp1475
a.