(lp0
(lp1
(lp2
S'001644'
p3
aS'bus'
p4
aS'err_lowIoU'
p5
aF8.4
aF53.9
aF285.8
aF242.1
aa(lp6
(lp7
F19.0
aF3.0
aF498.0
aF319.0
aaaa(lp8
(lp9
S'006992'
p10
ag4
ag5
aF4.3
aF146.8
aF343.8
aF262.9
aa(lp11
(lp12
F250.0
aF139.0
aF500.0
aF269.0
aa(lp13
F140.0
aF148.0
aF254.0
aF266.0
aa(lp14
F58.0
aF160.0
aF146.0
aF262.0
aa(lp15
F17.0
aF163.0
aF65.0
aF266.0
aaaa(lp16
(lp17
S'004302'
p18
ag4
aS'err_repeat'
p19
aF4.8
aF124.7
aF289.4
aF265.6
aa(lp20
(lp21
F1.0
aF124.0
aF500.0
aF264.0
aaaa(lp22
(lp23
S'007912'
p24
ag4
ag5
aF382.2
aF100.7
aF497.8
aF263.4
aa(lp25
(lp26
F89.0
aF78.0
aF500.0
aF290.0
aaaa(lp27
(lp28
S'004883'
p29
ag4
ag5
aF252.7
aF69.9
aF490.0
aF226.3
aa(lp30
(lp31
F10.0
aF89.0
aF488.0
aF217.0
aaaa(lp32
(lp33
S'009704'
p34
ag4
ag5
aF147.3
aF121.1
aF263.4
aF257.5
aa(lp35
(lp36
F43.0
aF130.0
aF269.0
aF244.0
aaaa(lp37
(lp38
S'004578'
p39
ag4
ag5
aF163.3
aF117.5
aF312.9
aF280.5
aa(lp40
aa(lp41
(lp42
S'009062'
p43
ag4
ag5
aF259.2
aF125.4
aF399.2
aF220.2
aa(lp44
(lp45
F89.0
aF132.0
aF387.0
aF217.0
aaaa(lp46
(lp47
S'000536'
p48
ag4
ag5
aF321.5
aF132.9
aF483.3
aF333.5
aa(lp49
(lp50
F11.0
aF90.0
aF481.0
aF330.0
aaaa(lp51
(lp52
S'001808'
p53
ag4
ag5
aF7.3
aF7.7
aF329.3
aF169.7
aa(lp54
aa(lp55
(lp56
S'001335'
p57
ag4
ag5
aF121.0
aF76.4
aF450.1
aF277.4
aa(lp58
aa(lp59
(lp60
S'008782'
p61
ag4
ag5
aF143.8
aF139.6
aF252.6
aF265.7
aa(lp62
(lp63
F130.0
aF126.0
aF388.0
aF267.0
aaaa(lp64
(lp65
S'009062'
p66
ag4
ag5
aF95.2
aF128.8
aF234.9
aF226.7
aa(lp67
(lp68
F89.0
aF132.0
aF387.0
aF217.0
aaaa(lp69
(lp70
S'003289'
p71
ag4
ag5
aF314.4
aF186.3
aF400.3
aF243.6
aa(lp72
(lp73
F239.0
aF187.0
aF410.0
aF240.0
aaaa(lp74
(lp75
S'007990'
p76
ag4
ag5
aF9.7
aF85.2
aF416.1
aF278.7
aa(lp77
aa(lp78
(lp79
S'009829'
p80
ag4
ag5
aF1.0
aF230.3
aF236.4
aF367.7
aa(lp81
aa(lp82
(lp83
S'006376'
p84
ag4
ag5
aF148.8
aF20.3
aF473.9
aF182.6
aa(lp85
aa(lp86
(lp87
S'005296'
p88
ag4
ag5
aF52.1
aF53.3
aF429.7
aF324.3
aa(lp89
aa(lp90
(lp91
S'008357'
p92
ag4
ag5
aF2.6
aF129.9
aF66.9
aF181.5
aa(lp93
(lp94
F65.0
aF71.0
aF420.0
aF214.0
aaaa(lp95
(lp96
S'007507'
p97
ag4
ag5
aF276.0
aF171.6
aF314.6
aF217.0
aa(lp98
aa(lp99
(lp100
S'006407'
p101
ag4
ag5
aF144.0
aF255.4
aF239.0
aF342.8
aa(lp102
(lp103
F47.0
aF92.0
aF385.0
aF343.0
aaaa(lp104
(lp105
S'000984'
p106
ag4
ag5
aF49.7
aF25.6
aF215.8
aF483.4
aa(lp107
aa(lp108
(lp109
S'001318'
p110
ag4
ag5
aF38.4
aF205.5
aF143.8
aF274.7
aa(lp111
(lp112
F206.0
aF182.0
aF368.0
aF251.0
aaaa(lp113
(lp114
S'008237'
p115
ag4
ag5
aF7.6
aF69.1
aF334.0
aF278.8
aa(lp116
aa(lp117
(lp118
S'004802'
p119
ag4
ag19
aF184.8
aF101.4
aF427.5
aF196.6
aa(lp120
(lp121
F17.0
aF103.0
aF430.0
aF209.0
aaaa(lp122
(lp123
S'001916'
p124
ag4
ag5
aF258.7
aF17.8
aF492.0
aF99.0
aa(lp125
aa(lp126
(lp127
S'009265'
p128
ag4
ag5
aF12.5
aF62.2
aF249.3
aF324.0
aa(lp129
(lp130
F30.0
aF1.0
aF382.0
aF322.0
aa(lp131
F1.0
aF169.0
aF33.0
aF324.0
aa(lp132
F228.0
aF3.0
aF500.0
aF324.0
aaaa(lp133
(lp134
S'004580'
p135
ag4
ag5
aF3.5
aF80.7
aF182.9
aF456.9
aa(lp136
aa(lp137
(lp138
S'003399'
p139
ag4
ag5
aF4.4
aF36.1
aF445.1
aF231.1
aa(lp140
(lp141
F35.0
aF62.0
aF246.0
aF213.0
aaaa(lp142
(lp143
S'008286'
p144
ag4
ag5
aF68.9
aF129.9
aF272.3
aF276.9
aa(lp145
aa(lp146
(lp147
S'003321'
p148
ag4
ag5
aF81.7
aF137.4
aF206.5
aF191.2
aa(lp149
aa(lp150
(lp151
S'004070'
p152
ag4
ag5
aF6.9
aF127.7
aF129.6
aF156.2
aa(lp153
aa(lp154
(lp155
S'008736'
p156
ag4
ag5
aF357.5
aF179.9
aF500.0
aF284.8
aa(lp157
(lp158
F346.0
aF83.0
aF500.0
aF275.0
aaaa(lp159
(lp160
S'000723'
p161
ag4
ag5
aF305.3
aF120.3
aF437.3
aF285.7
aa(lp162
(lp163
F95.0
aF129.0
aF458.0
aF262.0
aaaa(lp164
(lp165
S'004442'
p166
ag4
ag5
aF332.4
aF227.4
aF398.2
aF276.5
aa(lp167
aa(lp168
(lp169
S'003334'
p170
ag4
ag5
aF231.7
aF41.8
aF484.0
aF189.5
aa(lp171
aa(lp172
(lp173
S'006094'
p174
ag4
ag5
aF286.2
aF119.8
aF403.7
aF332.8
aa(lp175
aa(lp176
(lp177
S'002865'
p178
ag4
ag5
aF362.9
aF211.0
aF394.3
aF254.8
aa(lp179
(lp180
F404.0
aF215.0
aF500.0
aF257.0
aa(lp181
F376.0
aF214.0
aF402.0
aF255.0
aa(lp182
F362.0
aF201.0
aF380.0
aF251.0
aa(lp183
F274.0
aF155.0
aF362.0
aF240.0
aa(lp184
F46.0
aF1.0
aF394.0
aF373.0
aa(lp185
F4.0
aF1.0
aF54.0
aF372.0
aaaa(lp186
(lp187
S'009122'
p188
ag4
ag5
aF26.4
aF239.9
aF77.9
aF320.2
aa(lp189
(lp190
F289.0
aF266.0
aF500.0
aF355.0
aaaa(lp191
(lp192
S'007944'
p193
ag4
ag5
aF12.4
aF30.9
aF265.2
aF196.7
aa(lp194
(lp195
F25.0
aF28.0
aF500.0
aF196.0
aaaa(lp196
(lp197
S'008694'
p198
ag4
ag5
aF30.3
aF132.4
aF207.1
aF281.8
aa(lp199
aa(lp200
(lp201
S'002370'
p202
ag4
ag5
aF190.0
aF113.0
aF353.6
aF254.0
aa(lp203
aa(lp204
(lp205
S'003043'
p206
ag4
ag5
aF366.0
aF268.0
aF476.2
aF322.7
aa(lp207
aa(lp208
(lp209
S'000014'
p210
ag4
ag5
aF21.7
aF10.8
aF268.0
aF253.7
aa(lp211
(lp212
F72.0
aF163.0
aF302.0
aF228.0
aaaa(lp213
a(lp214
a(lp215
a(lp216
a(lp217
a(lp218
a(lp219
a(lp220
a(lp221
a(lp222
a(lp223
a(lp224
a(lp225
a(lp226
a(lp227
a(lp228
a(lp229
a(lp230
a(lp231
a(lp232
a(lp233
a(lp234
a(lp235
a(lp236
a(lp237
a(lp238
a(lp239
a(lp240
a(lp241
a(lp242
a(lp243
a(lp244
a(lp245
a(lp246
a(lp247
a(lp248
a(lp249
a(lp250
a(lp251
a(lp252
a(lp253
a(lp254
a(lp255
a(lp256
a(lp257
a(lp258
a(lp259
a(lp260
a(lp261
a(lp262
a(lp263
a(lp264
a(lp265
a(lp266
a(lp267
a(lp268
a(lp269
a(lp270
a(lp271
a(lp272
a(lp273
a(lp274
a(lp275
a(lp276
a(lp277
a(lp278
a(lp279
a(lp280
a(lp281
a(lp282
a(lp283
a(lp284
a(lp285
a(lp286
a(lp287
a(lp288
a(lp289
a(lp290
a(lp291
a(lp292
a(lp293
a(lp294
a(lp295
a(lp296
a(lp297
a(lp298
a(lp299
a(lp300
a(lp301
a(lp302
a(lp303
a(lp304
a(lp305
a(lp306
a(lp307
a(lp308
a(lp309
a(lp310
a(lp311
a(lp312
a(lp313
a(lp314
a(lp315
a(lp316
a(lp317
a(lp318
a(lp319
a(lp320
a(lp321
a(lp322
a(lp323
a(lp324
a(lp325
a(lp326
a(lp327
a(lp328
a(lp329
a(lp330
a(lp331
a(lp332
a(lp333
a(lp334
a(lp335
a(lp336
a(lp337
a(lp338
a(lp339
a(lp340
a(lp341
a(lp342
a(lp343
a(lp344
a(lp345
a(lp346
a(lp347
a(lp348
a(lp349
a(lp350
a(lp351
a(lp352
a(lp353
a(lp354
a(lp355
a(lp356
a(lp357
a(lp358
a(lp359
a(lp360
a(lp361
a(lp362
a(lp363
a(lp364
a(lp365
a(lp366
a(lp367
a(lp368
a(lp369
a(lp370
a(lp371
a(lp372
a(lp373
a(lp374
a(lp375
a(lp376
a(lp377
a(lp378
a(lp379
a(lp380
a(lp381
a.