(lp0
(lp1
(lp2
S'002665'
p3
aS'car'
p4
aS'err_lowIoU'
p5
aF169.6
aF182.9
aF255.0
aF230.5
aa(lp6
aF0.998
aa(lp7
(lp8
S'000593'
p9
ag4
ag5
aF28.0
aF119.7
aF77.9
aF155.1
aa(lp10
(lp11
F1.0
aF100.0
aF21.0
aF271.0
aa(lp12
F78.0
aF74.0
aF382.0
aF258.0
aa(lp13
F238.0
aF85.0
aF298.0
aF116.0
aa(lp14
F270.0
aF63.0
aF500.0
aF228.0
aaaF0.998
aa(lp15
(lp16
S'001435'
p17
ag4
ag5
aF133.4
aF206.9
aF327.1
aF267.8
aa(lp18
(lp19
F242.0
aF232.0
aF461.0
aF312.0
aa(lp20
F10.0
aF258.0
aF249.0
aF347.0
aa(lp21
F12.0
aF177.0
aF104.0
aF209.0
aa(lp22
F151.0
aF184.0
aF251.0
aF227.0
aa(lp23
F226.0
aF188.0
aF343.0
aF231.0
aa(lp24
F294.0
aF180.0
aF371.0
aF206.0
aa(lp25
F401.0
aF172.0
aF482.0
aF212.0
aa(lp26
F462.0
aF177.0
aF491.0
aF209.0
aa(lp27
F221.0
aF174.0
aF298.0
aF190.0
aa(lp28
F106.0
aF174.0
aF173.0
aF201.0
aaaF0.997
aa(lp29
(lp30
S'004097'
p31
ag4
ag5
aF157.2
aF81.1
aF342.6
aF282.1
aa(lp32
(lp33
F398.0
aF148.0
aF500.0
aF205.0
aaaF0.997
aa(lp34
(lp35
S'005484'
p36
ag4
ag5
aF127.4
aF89.0
aF334.2
aF263.9
aa(lp37
(lp38
F402.0
aF185.0
aF457.0
aF209.0
aa(lp39
F118.0
aF151.0
aF143.0
aF212.0
aaaF0.996
aa(lp40
(lp41
S'008623'
p42
ag4
ag5
aF241.5
aF202.0
aF278.8
aF231.0
aa(lp43
aF0.994
aa(lp44
(lp45
S'008895'
p46
ag4
ag5
aF232.7
aF171.6
aF263.6
aF197.4
aa(lp47
(lp48
F291.0
aF194.0
aF423.0
aF246.0
aaaF0.994
aa(lp49
(lp50
S'002331'
p51
ag4
ag5
aF27.5
aF49.2
aF66.2
aF83.7
aa(lp52
(lp53
F2.0
aF56.0
aF53.0
aF103.0
aa(lp54
F70.0
aF52.0
aF120.0
aF101.0
aa(lp55
F167.0
aF59.0
aF194.0
aF96.0
aa(lp56
F224.0
aF57.0
aF292.0
aF99.0
aa(lp57
F292.0
aF54.0
aF370.0
aF97.0
aaaF0.994
aa(lp58
(lp59
S'004666'
p60
ag4
ag5
aF317.9
aF162.4
aF433.0
aF271.5
aa(lp61
aF0.994
aa(lp62
(lp63
S'002665'
p64
ag4
ag5
aF292.3
aF164.4
aF336.6
aF201.9
aa(lp65
aF0.992
aa(lp66
(lp67
S'002331'
p68
ag4
ag5
aF325.8
aF54.2
aF361.0
aF90.5
aa(lp69
(lp70
F2.0
aF56.0
aF53.0
aF103.0
aa(lp71
F70.0
aF52.0
aF120.0
aF101.0
aa(lp72
F167.0
aF59.0
aF194.0
aF96.0
aa(lp73
F224.0
aF57.0
aF292.0
aF99.0
aa(lp74
F292.0
aF54.0
aF370.0
aF97.0
aaaF0.991
aa(lp75
(lp76
S'000284'
p77
ag4
ag5
aF410.7
aF71.8
aF494.6
aF119.0
aa(lp78
(lp79
F201.0
aF78.0
aF440.0
aF256.0
aaaF0.99
aa(lp80
(lp81
S'001428'
p82
ag4
ag5
aF259.6
aF143.9
aF336.5
aF228.8
aa(lp83
(lp84
F243.0
aF141.0
aF402.0
aF225.0
aa(lp85
F286.0
aF110.0
aF332.0
aF134.0
aaaF0.99
aa(lp86
(lp87
S'005663'
p88
ag4
ag5
aF4.0
aF167.1
aF80.6
aF198.1
aa(lp89
(lp90
F259.0
aF307.0
aF363.0
aF335.0
aa(lp91
F40.0
aF179.0
aF79.0
aF198.0
aaaF0.989
aa(lp92
(lp93
S'009705'
p94
ag4
ag5
aF240.0
aF1.3
aF320.7
aF35.7
aa(lp95
(lp96
F239.0
aF1.0
aF397.0
aF46.0
aa(lp97
F431.0
aF1.0
aF500.0
aF36.0
aaaF0.989
aa(lp98
(lp99
S'008895'
p100
ag4
ag5
aF271.3
aF164.1
aF321.7
aF203.1
aa(lp101
(lp102
F291.0
aF194.0
aF423.0
aF246.0
aaaF0.988
aa(lp103
(lp104
S'004580'
p105
ag4
ag5
aF181.2
aF241.5
aF241.6
aF325.4
aa(lp106
(lp107
F338.0
aF267.0
aF394.0
aF320.0
aaaF0.987
aa(lp108
(lp109
S'005556'
p110
ag4
ag5
aF418.3
aF202.2
aF483.6
aF233.3
aa(lp111
aF0.987
aa(lp112
(lp113
S'000687'
p114
ag4
ag5
aF282.3
aF32.8
aF330.5
aF71.2
aa(lp115
(lp116
F369.0
aF34.0
aF490.0
aF87.0
aa(lp117
F309.0
aF56.0
aF489.0
aF200.0
aa(lp118
F246.0
aF33.0
aF321.0
aF74.0
aa(lp119
F185.0
aF40.0
aF228.0
aF63.0
aa(lp120
F176.0
aF43.0
aF188.0
aF61.0
aa(lp121
F92.0
aF34.0
aF140.0
aF62.0
aa(lp122
F20.0
aF40.0
aF66.0
aF62.0
aa(lp123
F27.0
aF66.0
aF481.0
aF308.0
aaaF0.987
aa(lp124
(lp125
S'007591'
p126
ag4
ag5
aF24.4
aF113.8
aF292.5
aF415.9
aa(lp127
(lp128
F1.0
aF142.0
aF50.0
aF465.0
aaaF0.986
aa(lp129
(lp130
S'006469'
p131
ag4
ag5
aF140.3
aF165.5
aF212.4
aF223.1
aa(lp132
(lp133
F1.0
aF165.0
aF79.0
aF229.0
aa(lp134
F141.0
aF168.0
aF210.0
aF196.0
aaaF0.986
aa(lp135
(lp136
S'009590'
p137
ag4
ag5
aF8.1
aF143.9
aF51.0
aF205.1
aa(lp138
(lp139
F18.0
aF85.0
aF492.0
aF299.0
aa(lp140
F8.0
aF149.0
aF93.0
aF217.0
aaaF0.986
aa(lp141
(lp142
S'007246'
p143
ag4
ag5
aF242.6
aF85.1
aF486.9
aF367.2
aa(lp144
(lp145
F3.0
aF81.0
aF491.0
aF374.0
aa(lp146
F152.0
aF86.0
aF500.0
aF241.0
aaaF0.986
aa(lp147
(lp148
S'008195'
p149
ag4
ag5
aF1.0
aF19.6
aF53.5
aF68.6
aa(lp150
aF0.984
aa(lp151
(lp152
S'007818'
p153
ag4
ag5
aF180.7
aF139.8
aF234.2
aF166.3
aa(lp154
(lp155
F1.0
aF140.0
aF40.0
aF166.0
aa(lp156
F43.0
aF135.0
aF93.0
aF166.0
aa(lp157
F92.0
aF136.0
aF135.0
aF165.0
aa(lp158
F143.0
aF134.0
aF184.0
aF165.0
aa(lp159
F186.0
aF139.0
aF216.0
aF163.0
aa(lp160
F217.0
aF147.0
aF231.0
aF160.0
aa(lp161
F297.0
aF146.0
aF310.0
aF159.0
aa(lp162
F312.0
aF148.0
aF319.0
aF156.0
aa(lp163
F1.0
aF184.0
aF60.0
aF244.0
aaaF0.984
aa(lp164
(lp165
S'000231'
p166
ag4
ag5
aF94.1
aF144.9
aF156.4
aF209.7
aa(lp167
aF0.984
aa(lp168
(lp169
S'007510'
p170
ag4
ag5
aF155.3
aF165.1
aF454.5
aF373.9
aa(lp171
(lp172
F373.0
aF276.0
aF500.0
aF359.0
aaaF0.983
aa(lp173
(lp174
S'003769'
p175
ag4
ag5
aF1.0
aF103.0
aF73.4
aF155.4
aa(lp176
(lp177
F14.0
aF139.0
aF306.0
aF346.0
aa(lp178
F286.0
aF132.0
aF319.0
aF205.0
aa(lp179
F222.0
aF100.0
aF306.0
aF120.0
aa(lp180
F105.0
aF97.0
aF233.0
aF123.0
aa(lp181
F2.0
aF101.0
aF142.0
aF129.0
aaaF0.983
aa(lp182
(lp183
S'005035'
p184
ag4
ag5
aF3.4
aF7.2
aF77.2
aF95.8
aa(lp185
(lp186
F33.0
aF35.0
aF483.0
aF292.0
aa(lp187
F429.0
aF18.0
aF500.0
aF73.0
aa(lp188
F2.0
aF27.0
aF54.0
aF105.0
aaaF0.982
aa(lp189
(lp190
S'007757'
p191
ag4
ag5
aF336.6
aF21.6
aF369.9
aF43.7
aa(lp192
(lp193
F15.0
aF40.0
aF483.0
aF252.0
aa(lp194
F3.0
aF11.0
aF210.0
aF92.0
aa(lp195
F391.0
aF26.0
aF479.0
aF64.0
aa(lp196
F482.0
aF18.0
aF500.0
aF78.0
aaaF0.982
aa(lp197
(lp198
S'000248'
p199
ag4
ag5
aF241.3
aF185.3
aF409.4
aF295.9
aa(lp200
aF0.982
aa(lp201
(lp202
S'004337'
p203
ag4
ag5
aF4.1
aF166.8
aF68.5
aF192.0
aa(lp204
(lp205
F357.0
aF173.0
aF500.0
aF244.0
aa(lp206
F255.0
aF173.0
aF396.0
aF227.0
aa(lp207
F202.0
aF173.0
aF302.0
aF217.0
aa(lp208
F153.0
aF171.0
aF241.0
aF211.0
aa(lp209
F125.0
aF172.0
aF193.0
aF206.0
aa(lp210
F86.0
aF168.0
aF164.0
aF205.0
aa(lp211
F57.0
aF168.0
aF104.0
aF198.0
aa(lp212
F36.0
aF171.0
aF85.0
aF195.0
aa(lp213
F20.0
aF170.0
aF58.0
aF190.0
aa(lp214
F3.0
aF174.0
aF17.0
aF189.0
aaaF0.98
aa(lp215
(lp216
S'007112'
p217
ag4
ag5
aF348.5
aF118.8
aF399.0
aF147.7
aa(lp218
(lp219
F86.0
aF139.0
aF428.0
aF241.0
aaaF0.979
aa(lp220
(lp221
S'005627'
p222
ag4
ag5
aF60.2
aF65.4
aF104.5
aF89.4
aa(lp223
(lp224
F270.0
aF95.0
aF493.0
aF215.0
aa(lp225
F101.0
aF87.0
aF351.0
aF192.0
aa(lp226
F12.0
aF82.0
aF178.0
aF168.0
aa(lp227
F1.0
aF86.0
aF68.0
aF146.0
aa(lp228
F281.0
aF74.0
aF358.0
aF114.0
aa(lp229
F443.0
aF72.0
aF500.0
aF121.0
aaaF0.977
aa(lp230
(lp231
S'000392'
p232
ag4
ag5
aF465.3
aF173.3
aF500.0
aF196.8
aa(lp233
aF0.974
aa(lp234
(lp235
S'008504'
p236
ag4
ag5
aF72.3
aF3.7
aF119.8
aF30.9
aa(lp237
(lp238
F337.0
aF114.0
aF447.0
aF201.0
aa(lp239
F397.0
aF1.0
aF438.0
aF27.0
aa(lp240
F309.0
aF11.0
aF362.0
aF41.0
aa(lp241
F189.0
aF1.0
aF234.0
aF21.0
aa(lp242
F167.0
aF1.0
aF196.0
aF15.0
aa(lp243
F104.0
aF61.0
aF180.0
aF109.0
aa(lp244
F156.0
aF87.0
aF238.0
aF139.0
aa(lp245
F162.0
aF129.0
aF263.0
aF165.0
aa(lp246
F151.0
aF154.0
aF307.0
aF235.0
aa(lp247
F235.0
aF50.0
aF300.0
aF93.0
aa(lp248
F324.0
aF57.0
aF397.0
aF105.0
aa(lp249
F291.0
aF73.0
aF364.0
aF125.0
aa(lp250
F434.0
aF60.0
aF500.0
aF112.0
aa(lp251
F425.0
aF43.0
aF488.0
aF90.0
aa(lp252
F477.0
aF15.0
aF500.0
aF44.0
aaaF0.971
aa(lp253
(lp254
S'008367'
p255
ag4
ag5
aF43.1
aF35.5
aF139.6
aF119.1
aa(lp256
aF0.971
aa(lp257
(lp258
S'008504'
p259
ag4
ag5
aF40.9
aF7.9
aF86.7
aF42.6
aa(lp260
(lp261
F337.0
aF114.0
aF447.0
aF201.0
aa(lp262
F397.0
aF1.0
aF438.0
aF27.0
aa(lp263
F309.0
aF11.0
aF362.0
aF41.0
aa(lp264
F189.0
aF1.0
aF234.0
aF21.0
aa(lp265
F167.0
aF1.0
aF196.0
aF15.0
aa(lp266
F104.0
aF61.0
aF180.0
aF109.0
aa(lp267
F156.0
aF87.0
aF238.0
aF139.0
aa(lp268
F162.0
aF129.0
aF263.0
aF165.0
aa(lp269
F151.0
aF154.0
aF307.0
aF235.0
aa(lp270
F235.0
aF50.0
aF300.0
aF93.0
aa(lp271
F324.0
aF57.0
aF397.0
aF105.0
aa(lp272
F291.0
aF73.0
aF364.0
aF125.0
aa(lp273
F434.0
aF60.0
aF500.0
aF112.0
aa(lp274
F425.0
aF43.0
aF488.0
aF90.0
aa(lp275
F477.0
aF15.0
aF500.0
aF44.0
aaaF0.965
aa(lp276
(lp277
S'006651'
p278
ag4
ag5
aF49.5
aF142.1
aF87.3
aF161.8
aa(lp279
aF0.964
aa(lp280
(lp281
S'009033'
p282
ag4
ag5
aF102.3
aF333.5
aF184.1
aF395.6
aa(lp283
(lp284
F322.0
aF331.0
aF375.0
aF364.0
aa(lp285
F271.0
aF326.0
aF358.0
aF365.0
aa(lp286
F252.0
aF337.0
aF331.0
aF371.0
aa(lp287
F207.0
aF335.0
aF303.0
aF377.0
aa(lp288
F123.0
aF327.0
aF259.0
aF382.0
aa(lp289
F98.0
aF342.0
aF242.0
aF385.0
aa(lp290
F31.0
aF341.0
aF187.0
aF397.0
aa(lp291
F2.0
aF341.0
aF138.0
aF406.0
aa(lp292
F1.0
aF367.0
aF67.0
aF419.0
aaaF0.963
aa(lp293
(lp294
S'005627'
p295
ag4
ag5
aF155.7
aF82.8
aF269.1
aF221.1
aa(lp296
(lp297
F270.0
aF95.0
aF493.0
aF215.0
aa(lp298
F101.0
aF87.0
aF351.0
aF192.0
aa(lp299
F12.0
aF82.0
aF178.0
aF168.0
aa(lp300
F1.0
aF86.0
aF68.0
aF146.0
aa(lp301
F281.0
aF74.0
aF358.0
aF114.0
aa(lp302
F443.0
aF72.0
aF500.0
aF121.0
aaaF0.962
aa(lp303
(lp304
S'009589'
p305
ag4
ag5
aF43.9
aF19.3
aF146.1
aF63.8
aa(lp306
aF0.962
aa(lp307
(lp308
S'005907'
p309
ag4
ag5
aF299.6
aF55.9
aF332.9
aF75.1
aa(lp310
aF0.96
aa(lp311
(lp312
S'003578'
p313
ag4
ag5
aF193.1
aF152.8
aF375.0
aF296.9
aa(lp314
(lp315
F3.0
aF185.0
aF207.0
aF295.0
aa(lp316
F274.0
aF155.0
aF375.0
aF327.0
aa(lp317
F196.0
aF162.0
aF311.0
aF259.0
aa(lp318
F104.0
aF162.0
aF217.0
aF203.0
aa(lp319
F1.0
aF167.0
aF88.0
aF200.0
aa(lp320
F1.0
aF167.0
aF39.0
aF191.0
aa(lp321
F280.0
aF146.0
aF333.0
aF164.0
aaaF0.96
aa(lp322
(lp323
S'000195'
p324
ag4
ag5
aF38.0
aF20.7
aF441.5
aF365.9
aa(lp325
aF0.958
aa(lp326
(lp327
S'007181'
p328
ag4
ag5
aF131.3
aF55.8
aF157.7
aF84.5
aa(lp329
aF0.958
aa(lp330
(lp331
S'003677'
p332
ag4
ag5
aF35.7
aF80.3
aF423.4
aF381.1
aa(lp333
(lp334
F1.0
aF56.0
aF351.0
aF183.0
aaaF0.956
aa(lp335
(lp336
S'001376'
p337
ag4
ag5
aF6.5
aF222.3
aF43.6
aF250.3
aa(lp338
(lp339
F383.0
aF241.0
aF426.0
aF274.0
aaaF0.956
aa(lp340
(lp341
S'007961'
p342
ag4
ag5
aF367.9
aF167.3
aF443.8
aF200.3
aa(lp343
(lp344
F320.0
aF150.0
aF441.0
aF199.0
aa(lp345
F48.0
aF159.0
aF135.0
aF218.0
aa(lp346
F193.0
aF199.0
aF500.0
aF333.0
aa(lp347
F396.0
aF177.0
aF500.0
aF268.0
aa(lp348
F87.0
aF168.0
aF179.0
aF252.0
aa(lp349
F445.0
aF165.0
aF500.0
aF202.0
aaaF0.951
aa(lp350
(lp351
S'005157'
p352
ag4
ag5
aF7.7
aF163.6
aF65.4
aF201.9
aa(lp353
(lp354
F97.0
aF200.0
aF290.0
aF276.0
aa(lp355
F29.0
aF170.0
aF62.0
aF203.0
aaaF0.951
aa(lp356
(lp357
S'002522'
p358
ag4
ag5
aF241.0
aF20.5
aF498.7
aF171.5
aa(lp359
(lp360
F1.0
aF12.0
aF495.0
aF286.0
aaaF0.95
aa(lp361
(lp362
S'002865'
p363
ag4
ag5
aF161.4
aF212.0
aF402.3
aF375.0
aa(lp364
aF0.944
aa(lp365
(lp366
S'001659'
p367
ag4
ag5
aF54.7
aF165.7
aF294.3
aF375.6
aa(lp368
aF0.941
aa(lp369
(lp370
S'005074'
p371
ag4
ag5
aF382.6
aF206.1
aF427.2
aF233.8
aa(lp372
(lp373
F343.0
aF194.0
aF426.0
aF240.0
aa(lp374
F396.0
aF201.0
aF469.0
aF233.0
aa(lp375
F323.0
aF194.0
aF351.0
aF222.0
aa(lp376
F87.0
aF191.0
aF144.0
aF209.0
aa(lp377
F22.0
aF189.0
aF83.0
aF222.0
aa(lp378
F62.0
aF200.0
aF118.0
aF226.0
aaaF0.939
aa(lp379
(lp380
S'009396'
p381
ag4
ag5
aF31.1
aF454.6
aF63.9
aF477.2
aa(lp382
(lp383
F134.0
aF420.0
aF266.0
aF500.0
aa(lp384
F30.0
aF455.0
aF90.0
aF481.0
aaaF0.935
aa(lp385
(lp386
S'006713'
p387
ag4
ag5
aF283.4
aF270.3
aF329.7
aF295.9
aa(lp388
aF0.934
aa(lp389
(lp390
S'009023'
p391
ag4
ag5
aF388.2
aF50.7
aF431.5
aF112.9
aa(lp392
(lp393
F390.0
aF49.0
aF478.0
aF120.0
aa(lp394
F46.0
aF50.0
aF405.0
aF319.0
aaaF0.934
aa(lp395
(lp396
S'000646'
p397
ag4
ag5
aF297.9
aF29.1
aF400.8
aF96.3
aa(lp398
(lp399
F198.0
aF25.0
aF412.0
aF102.0
aa(lp400
F394.0
aF45.0
aF500.0
aF236.0
aa(lp401
F2.0
aF32.0
aF78.0
aF231.0
aa(lp402
F58.0
aF38.0
aF449.0
aF370.0
aaaF0.933
aa(lp403
(lp404
S'007061'
p405
ag4
ag5
aF7.5
aF227.5
aF160.3
aF336.2
aa(lp406
(lp407
F11.0
aF39.0
aF496.0
aF367.0
aa(lp408
F1.0
aF82.0
aF109.0
aF177.0
aaaF0.929
aa(lp409
(lp410
S'001776'
p411
ag4
ag5
aF1.0
aF162.0
aF170.8
aF287.5
aa(lp412
(lp413
F1.0
aF106.0
aF349.0
aF296.0
aaaF0.926
aa(lp414
(lp415
S'003517'
p416
ag4
ag5
aF2.7
aF147.8
aF34.5
aF213.1
aa(lp417
(lp418
F32.0
aF141.0
aF119.0
aF222.0
aaaF0.924
aa(lp419
(lp420
S'004249'
p421
ag4
ag5
aF300.7
aF113.8
aF339.1
aF129.0
aa(lp422
(lp423
F175.0
aF158.0
aF422.0
aF251.0
aaaF0.919
aa(lp424
(lp425
S'002748'
p426
ag4
ag5
aF52.1
aF38.6
aF483.1
aF375.0
aa(lp427
aF0.918
aa(lp428
(lp429
S'000693'
p430
ag4
ag5
aF145.5
aF166.7
aF315.8
aF249.1
aa(lp431
(lp432
F292.0
aF181.0
aF499.0
aF288.0
aa(lp433
F379.0
aF175.0
aF500.0
aF229.0
aa(lp434
F164.0
aF178.0
aF263.0
aF242.0
aa(lp435
F1.0
aF172.0
aF177.0
aF252.0
aaaF0.916
aa(lp436
(lp437
S'008734'
p438
ag4
ag5
aF79.5
aF25.1
aF296.8
aF223.5
aa(lp439
(lp440
F40.0
aF44.0
aF500.0
aF375.0
aa(lp441
F363.0
aF39.0
aF500.0
aF168.0
aa(lp442
F120.0
aF11.0
aF273.0
aF71.0
aaaF0.914
aa(lp443
(lp444
S'002495'
p445
ag4
ag5
aF79.3
aF166.6
aF354.4
aF358.0
aa(lp446
aF0.913
aa(lp447
(lp448
S'000924'
p449
ag4
ag5
aF462.1
aF212.7
aF500.0
aF242.9
aa(lp450
aF0.911
aa(lp451
(lp452
S'008726'
p453
ag4
ag5
aF13.3
aF33.9
aF294.8
aF488.9
aa(lp454
aF0.909
aa(lp455
(lp456
S'000693'
p457
ag4
ag5
aF130.4
aF168.6
aF180.2
aF246.1
aa(lp458
(lp459
F292.0
aF181.0
aF499.0
aF288.0
aa(lp460
F379.0
aF175.0
aF500.0
aF229.0
aa(lp461
F164.0
aF178.0
aF263.0
aF242.0
aa(lp462
F1.0
aF172.0
aF177.0
aF252.0
aaaF0.904
aa(lp463
(lp464
S'002057'
p465
ag4
ag5
aF9.9
aF81.9
aF329.3
aF270.4
aa(lp466
(lp467
F2.0
aF1.0
aF500.0
aF320.0
aaaF0.899
aa(lp468
(lp469
S'007969'
p470
ag4
ag5
aF61.1
aF147.8
aF106.7
aF181.1
aa(lp471
(lp472
F66.0
aF155.0
aF89.0
aF180.0
aaaF0.899
aa(lp473
(lp474
S'009639'
p475
ag4
ag5
aF118.3
aF54.5
aF480.4
aF328.1
aa(lp476
aF0.894
aa(lp477
(lp478
S'009705'
p479
ag4
ag5
aF306.3
aF3.4
aF380.9
aF39.6
aa(lp480
(lp481
F239.0
aF1.0
aF397.0
aF46.0
aa(lp482
F431.0
aF1.0
aF500.0
aF36.0
aaaF0.893
aa(lp483
(lp484
S'002040'
p485
ag4
ag5
aF356.9
aF28.0
aF426.5
aF100.4
aa(lp486
(lp487
F78.0
aF38.0
aF432.0
aF334.0
aa(lp488
F366.0
aF20.0
aF500.0
aF103.0
aaaF0.888
aa(lp489
(lp490
S'003553'
p491
ag4
ag5
aF1.0
aF185.3
aF139.1
aF297.8
aa(lp492
(lp493
F28.0
aF125.0
aF500.0
aF337.0
aa(lp494
F1.0
aF199.0
aF107.0
aF258.0
aaaF0.882
aa(lp495
(lp496
S'004755'
p497
ag4
ag5
aF16.8
aF168.3
aF488.2
aF356.1
aa(lp498
(lp499
F157.0
aF170.0
aF443.0
aF252.0
aaaF0.878
aa(lp500
(lp501
S'009265'
p502
ag4
ag5
aF198.4
aF4.7
aF500.0
aF311.6
aa(lp503
aF0.878
aa(lp504
(lp505
S'009030'
p506
ag4
ag5
aF355.8
aF276.3
aF500.0
aF373.8
aa(lp507
aF0.874
aa(lp508
(lp509
S'008165'
p510
ag4
ag5
aF117.3
aF65.9
aF357.1
aF276.1
aa(lp511
aF0.869
aa(lp512
(lp513
S'009384'
p514
ag4
ag5
aF314.3
aF295.6
aF360.9
aF338.3
aa(lp515
(lp516
F167.0
aF293.0
aF266.0
aF372.0
aa(lp517
F70.0
aF303.0
aF150.0
aF361.0
aa(lp518
F2.0
aF298.0
aF58.0
aF374.0
aa(lp519
F60.0
aF295.0
aF104.0
aF335.0
aa(lp520
F36.0
aF298.0
aF65.0
aF332.0
aa(lp521
F148.0
aF308.0
aF184.0
aF338.0
aa(lp522
F276.0
aF313.0
aF329.0
aF351.0
aaaF0.864
aa(lp523
(lp524
S'001476'
p525
ag4
ag5
aF337.3
aF103.7
aF366.9
aF131.7
aa(lp526
(lp527
F288.0
aF98.0
aF342.0
aF120.0
aa(lp528
F325.0
aF99.0
aF404.0
aF131.0
aaaF0.862
aa(lp529
(lp530
S'002118'
p531
ag4
ag5
aF20.2
aF87.4
aF109.9
aF146.2
aa(lp532
(lp533
F1.0
aF288.0
aF189.0
aF334.0
aa(lp534
F1.0
aF160.0
aF389.0
aF334.0
aa(lp535
F1.0
aF144.0
aF458.0
aF311.0
aa(lp536
F9.0
aF109.0
aF418.0
aF234.0
aa(lp537
F1.0
aF105.0
aF461.0
aF237.0
aa(lp538
F215.0
aF109.0
aF487.0
aF211.0
aa(lp539
F24.0
aF88.0
aF102.0
aF113.0
aaaF0.858
aa(lp540
(lp541
S'006034'
p542
ag4
ag5
aF8.5
aF33.9
aF103.9
aF115.8
aa(lp543
(lp544
F6.0
aF36.0
aF287.0
aF137.0
aaaF0.858
aa(lp545
(lp546
S'006334'
p547
ag4
ag5
aF317.0
aF199.1
aF349.8
aF231.2
aa(lp548
(lp549
F270.0
aF194.0
aF350.0
aF233.0
aa(lp550
F282.0
aF196.0
aF322.0
aF236.0
aaaF0.856
aa(lp551
(lp552
S'008459'
p553
ag4
ag5
aF427.8
aF148.7
aF495.7
aF189.9
aa(lp554
aF0.853
aa(lp555
(lp556
S'006113'
p557
ag4
ag5
aF165.9
aF155.2
aF327.1
aF270.5
aa(lp558
(lp559
F162.0
aF166.0
aF211.0
aF243.0
aaaF0.851
aa(lp560
(lp561
S'005737'
p562
ag4
ag5
aF1.0
aF30.1
aF489.2
aF304.1
aa(lp563
aF0.847
aa(lp564
(lp565
S'004151'
p566
ag4
ag5
aF33.8
aF148.9
aF336.1
aF479.8
aa(lp567
aF0.847
aa(lp568
(lp569
S'008408'
p570
ag4
ag5
aF8.5
aF72.5
aF106.7
aF245.6
aa(lp571
(lp572
F6.0
aF68.0
aF494.0
aF366.0
aaaF0.843
aa(lp573
(lp574
S'000757'
p575
ag4
ag5
aF83.9
aF32.0
aF457.4
aF108.0
aa(lp576
(lp577
F47.0
aF25.0
aF479.0
aF333.0
aaaF0.841
aa(lp578
(lp579
S'000204'
p580
ag4
ag5
aF418.5
aF6.5
aF500.0
aF46.2
aa(lp581
aF0.837
aa(lp582
(lp583
S'000293'
p584
ag4
ag5
aF163.0
aF21.7
aF248.9
aF101.0
aa(lp585
(lp586
F1.0
aF2.0
aF456.0
aF318.0
aa(lp587
F68.0
aF62.0
aF122.0
aF99.0
aaaF0.833
aa(lp588
(lp589
S'004738'
p590
ag4
ag5
aF1.0
aF339.1
aF107.8
aF421.5
aa(lp591
aF0.827
aa(lp592
(lp593
S'009723'
p594
ag4
ag5
aF332.7
aF51.9
aF500.0
aF304.8
aa(lp595
(lp596
F1.0
aF69.0
aF499.0
aF365.0
aa(lp597
F1.0
aF15.0
aF105.0
aF120.0
aa(lp598
F89.0
aF22.0
aF181.0
aF47.0
aa(lp599
F78.0
aF25.0
aF135.0
aF45.0
aa(lp600
F65.0
aF18.0
aF116.0
aF42.0
aa(lp601
F374.0
aF26.0
aF497.0
aF91.0
aaaF0.827
aa(lp602
(lp603
S'007717'
p604
ag4
ag5
aF49.2
aF61.7
aF481.2
aF353.4
aa(lp605
aF0.825
aa(lp606
(lp607
S'002808'
p608
ag4
ag5
aF67.4
aF70.8
aF297.4
aF277.6
aa(lp609
(lp610
F243.0
aF107.0
aF331.0
aF244.0
aa(lp611
F2.0
aF132.0
aF75.0
aF217.0
aa(lp612
F37.0
aF135.0
aF94.0
aF188.0
aaaF0.825
aa(lp613
(lp614
S'005627'
p615
ag4
ag5
aF55.5
aF81.9
aF229.0
aF185.7
aa(lp616
(lp617
F270.0
aF95.0
aF493.0
aF215.0
aa(lp618
F101.0
aF87.0
aF351.0
aF192.0
aa(lp619
F12.0
aF82.0
aF178.0
aF168.0
aa(lp620
F1.0
aF86.0
aF68.0
aF146.0
aa(lp621
F281.0
aF74.0
aF358.0
aF114.0
aa(lp622
F443.0
aF72.0
aF500.0
aF121.0
aaaF0.823
aa(lp623
(lp624
S'008669'
p625
ag4
ag5
aF21.9
aF142.6
aF101.8
aF186.9
aa(lp626
aF0.821
aa(lp627
(lp628
S'006711'
p629
ag4
ag5
aF55.9
aF116.6
aF481.2
aF375.0
aa(lp630
aF0.818
aa(lp631
(lp632
S'003692'
p633
ag4
ag5
aF3.4
aF205.8
aF27.6
aF224.9
aa(lp634
(lp635
F126.0
aF194.0
aF181.0
aF230.0
aa(lp636
F270.0
aF187.0
aF334.0
aF227.0
aa(lp637
F52.0
aF190.0
aF105.0
aF227.0
aa(lp638
F442.0
aF190.0
aF500.0
aF226.0
aa(lp639
F39.0
aF205.0
aF125.0
aF228.0
aa(lp640
F174.0
aF205.0
aF256.0
aF230.0
aa(lp641
F330.0
aF206.0
aF366.0
aF228.0
aa(lp642
F409.0
aF209.0
aF443.0
aF228.0
aaaF0.818
aa(lp643
(lp644
S'005041'
p645
ag4
ag5
aF307.3
aF163.6
aF427.6
aF243.1
aa(lp646
(lp647
F441.0
aF175.0
aF496.0
aF227.0
aa(lp648
F321.0
aF162.0
aF387.0
aF220.0
aa(lp649
F366.0
aF156.0
aF500.0
aF374.0
aaaF0.811
aa(lp650
(lp651
S'008548'
p652
ag4
ag5
aF76.4
aF25.0
aF423.1
aF118.2
aa(lp653
(lp654
F47.0
aF32.0
aF475.0
aF332.0
aa(lp655
F182.0
aF1.0
aF378.0
aF106.0
aa(lp656
F440.0
aF22.0
aF500.0
aF92.0
aaaF0.81
aa(lp657
(lp658
S'003967'
p659
ag4
ag5
aF258.1
aF217.6
aF331.8
aF277.3
aa(lp660
(lp661
F166.0
aF142.0
aF188.0
aF160.0
aa(lp662
F175.0
aF155.0
aF195.0
aF176.0
aa(lp663
F178.0
aF177.0
aF210.0
aF208.0
aa(lp664
F261.0
aF130.0
aF304.0
aF147.0
aa(lp665
F237.0
aF114.0
aF271.0
aF130.0
aa(lp666
F362.0
aF201.0
aF399.0
aF235.0
aa(lp667
F88.0
aF121.0
aF117.0
aF136.0
aa(lp668
F37.0
aF144.0
aF66.0
aF171.0
aaaF0.808
aa(lp669
(lp670
S'004541'
p671
ag4
ag5
aF10.0
aF139.3
aF203.1
aF312.0
aa(lp672
aF0.805
aa(lp673
(lp674
S'006405'
p675
ag4
ag5
aF54.4
aF144.5
aF88.1
aF165.6
aa(lp676
(lp677
F193.0
aF308.0
aF375.0
aF500.0
aa(lp678
F1.0
aF295.0
aF128.0
aF500.0
aaaF0.805
aa(lp679
(lp680
S'006155'
p681
ag4
ag5
aF240.1
aF172.3
aF262.9
aF198.2
aa(lp682
(lp683
F393.0
aF174.0
aF496.0
aF219.0
aa(lp684
F341.0
aF173.0
aF428.0
aF212.0
aa(lp685
F291.0
aF169.0
aF368.0
aF205.0
aa(lp686
F245.0
aF169.0
aF322.0
aF206.0
aa(lp687
F220.0
aF170.0
aF277.0
aF199.0
aa(lp688
F178.0
aF170.0
aF250.0
aF198.0
aa(lp689
F143.0
aF169.0
aF210.0
aF195.0
aa(lp690
F118.0
aF166.0
aF169.0
aF192.0
aa(lp691
F98.0
aF168.0
aF164.0
aF186.0
aa(lp692
F79.0
aF167.0
aF127.0
aF183.0
aa(lp693
F66.0
aF167.0
aF100.0
aF182.0
aa(lp694
F44.0
aF163.0
aF90.0
aF183.0
aa(lp695
F19.0
aF166.0
aF64.0
aF180.0
aaaF0.804
aa(lp696
(lp697
S'008237'
p698
ag4
ag5
aF1.0
aF155.2
aF246.6
aF296.0
aa(lp699
aF0.8
aa(lp700
(lp701
S'003476'
p702
ag4
ag5
aF44.9
aF339.2
aF159.2
aF375.0
aa(lp703
(lp704
F1.0
aF337.0
aF262.0
aF375.0
aa(lp705
F394.0
aF354.0
aF500.0
aF375.0
aaaF0.796
aa(lp706
(lp707
S'007169'
p708
ag4
ag5
aF84.3
aF210.4
aF121.7
aF247.9
aa(lp709
aF0.796
aa(lp710
(lp711
S'006358'
p712
ag4
ag5
aF76.1
aF206.0
aF104.3
aF225.2
aa(lp713
(lp714
F465.0
aF204.0
aF500.0
aF232.0
aa(lp715
F36.0
aF206.0
aF74.0
aF229.0
aa(lp716
F98.0
aF205.0
aF150.0
aF227.0
aa(lp717
F150.0
aF202.0
aF205.0
aF230.0
aa(lp718
F210.0
aF207.0
aF245.0
aF227.0
aa(lp719
F250.0
aF206.0
aF273.0
aF227.0
aa(lp720
F281.0
aF207.0
aF342.0
aF230.0
aa(lp721
F345.0
aF200.0
aF425.0
aF235.0
aa(lp722
F68.0
aF200.0
aF101.0
aF223.0
aa(lp723
F444.0
aF198.0
aF472.0
aF227.0
aa(lp724
F423.0
aF199.0
aF446.0
aF230.0
aa(lp725
F268.0
aF203.0
aF321.0
aF227.0
aa(lp726
F251.0
aF206.0
aF270.0
aF226.0
aaaF0.795
aa(lp727
(lp728
S'007835'
p729
ag4
ag5
aF380.7
aF20.8
aF412.4
aF43.4
aa(lp730
(lp731
F421.0
aF25.0
aF444.0
aF34.0
aa(lp732
F409.0
aF30.0
aF436.0
aF43.0
aa(lp733
F382.0
aF27.0
aF407.0
aF39.0
aaaF0.792
aa(lp734
(lp735
S'009402'
p736
ag4
ag5
aF29.8
aF106.5
aF184.2
aF173.8
aa(lp737
aF0.788
aa(lp738
(lp739
S'003718'
p740
ag4
ag5
aF322.9
aF4.2
aF487.0
aF213.5
aa(lp741
(lp742
F1.0
aF3.0
aF500.0
aF333.0
aaaF0.787
aa(lp743
(lp744
S'001550'
p745
ag4
ag5
aF370.2
aF102.9
aF500.0
aF214.5
aa(lp746
(lp747
F6.0
aF59.0
aF500.0
aF340.0
aa(lp748
F419.0
aF104.0
aF500.0
aF156.0
aaaF0.785
aa(lp749
(lp750
S'008366'
p751
ag4
ag5
aF201.2
aF140.3
aF449.2
aF348.7
aa(lp752
aF0.782
aa(lp753
(lp754
S'009302'
p755
ag4
ag5
aF2.3
aF117.6
aF90.3
aF202.3
aa(lp756
(lp757
F39.0
aF131.0
aF460.0
aF314.0
aaaF0.779
aa(lp758
(lp759
S'009387'
p760
ag4
ag5
aF199.9
aF243.2
aF350.6
aF277.4
aa(lp761
(lp762
F391.0
aF248.0
aF443.0
aF269.0
aa(lp763
F5.0
aF262.0
aF52.0
aF277.0
aa(lp764
F173.0
aF256.0
aF210.0
aF277.0
aaaF0.778
aa(lp765
(lp766
S'007347'
p767
ag4
ag5
aF270.8
aF372.7
aF303.0
aF422.8
aa(lp768
(lp769
F329.0
aF339.0
aF375.0
aF493.0
aa(lp770
F227.0
aF373.0
aF315.0
aF429.0
aa(lp771
F1.0
aF334.0
aF68.0
aF500.0
aaaF0.77
aa(lp772
(lp773
S'000351'
p774
ag4
ag5
aF154.9
aF41.0
aF241.3
aF89.7
aa(lp775
(lp776
F1.0
aF28.0
aF330.0
aF156.0
aaaF0.765
aa(lp777
(lp778
S'007573'
p779
ag4
ag5
aF321.2
aF194.5
aF395.5
aF272.4
aa(lp780
aF0.764
aa(lp781
(lp782
S'006113'
p783
ag4
ag5
aF5.2
aF171.3
aF117.0
aF286.6
aa(lp784
(lp785
F162.0
aF166.0
aF211.0
aF243.0
aaaF0.759
aa(lp786
(lp787
S'000586'
p788
ag4
ag5
aF167.6
aF339.5
aF205.7
aF393.7
aa(lp789
(lp790
F166.0
aF341.0
aF292.0
aF444.0
aaaF0.759
aa(lp791
(lp792
S'004780'
p793
ag4
ag5
aF21.5
aF392.1
aF74.5
aF426.9
aa(lp794
(lp795
F158.0
aF383.0
aF263.0
aF451.0
aa(lp796
F19.0
aF383.0
aF147.0
aF426.0
aaaF0.758
aa(lp797
(lp798
S'009722'
p799
ag4
ag5
aF143.8
aF271.5
aF332.0
aF373.4
aa(lp800
aF0.756
aa(lp801
(lp802
S'006854'
p803
ag4
ag5
aF10.6
aF32.4
aF353.5
aF163.9
aa(lp804
(lp805
F2.0
aF18.0
aF375.0
aF426.0
aa(lp806
F313.0
aF22.0
aF375.0
aF83.0
aaaF0.755
aa(lp807
(lp808
S'002177'
p809
ag4
ag5
aF7.5
aF175.6
aF95.1
aF241.8
aa(lp810
(lp811
F211.0
aF185.0
aF284.0
aF255.0
aa(lp812
F240.0
aF183.0
aF500.0
aF298.0
aa(lp813
F1.0
aF178.0
aF149.0
aF307.0
aaaF0.755
aa(lp814
(lp815
S'002424'
p816
ag4
ag5
aF138.2
aF220.4
aF182.4
aF245.1
aa(lp817
(lp818
F401.0
aF222.0
aF490.0
aF285.0
aaaF0.754
aa(lp819
(lp820
S'002793'
p821
ag4
ag5
aF312.0
aF231.0
aF388.2
aF285.0
aa(lp822
(lp823
F1.0
aF255.0
aF145.0
aF294.0
aa(lp824
F139.0
aF250.0
aF289.0
aF293.0
aaaF0.752
aa(lp825
(lp826
S'009895'
p827
ag4
ag5
aF171.7
aF112.3
aF291.0
aF144.3
aa(lp828
(lp829
F51.0
aF125.0
aF330.0
aF303.0
aa(lp830
F302.0
aF111.0
aF433.0
aF201.0
aa(lp831
F177.0
aF103.0
aF288.0
aF174.0
aa(lp832
F1.0
aF100.0
aF76.0
aF185.0
aaaF0.75
aa(lp833
(lp834
S'002865'
p835
ag4
ag5
aF397.3
aF216.8
aF493.9
aF263.2
aa(lp836
aF0.746
aa(lp837
(lp838
S'001897'
p839
ag4
ag5
aF4.8
aF131.7
aF35.3
aF172.9
aa(lp840
aF0.745
aa(lp841
(lp842
S'008479'
p843
ag4
ag5
aF405.4
aF167.9
aF433.7
aF203.2
aa(lp844
(lp845
F135.0
aF102.0
aF401.0
aF271.0
aa(lp846
F443.0
aF159.0
aF500.0
aF222.0
aa(lp847
F408.0
aF167.0
aF463.0
aF209.0
aa(lp848
F389.0
aF170.0
aF422.0
aF209.0
aaaF0.744
aa(lp849
(lp850
S'003302'
p851
ag4
ag5
aF160.0
aF238.5
aF266.6
aF329.0
aa(lp852
(lp853
F315.0
aF246.0
aF342.0
aF276.0
aaaF0.743
aa(lp854
(lp855
S'000074'
p856
ag4
ag5
aF351.2
aF63.6
aF478.5
aF188.5
aa(lp857
(lp858
F58.0
aF61.0
aF475.0
aF283.0
aaaF0.742
aa(lp859
(lp860
S'002223'
p861
ag4
ag5
aF1.7
aF76.5
aF172.0
aF461.1
aa(lp862
(lp863
F298.0
aF221.0
aF325.0
aF249.0
aa(lp864
F345.0
aF219.0
aF361.0
aF235.0
aa(lp865
F216.0
aF227.0
aF250.0
aF252.0
aa(lp866
F213.0
aF238.0
aF227.0
aF279.0
aaaF0.741
aa(lp867
(lp868
S'001318'
p869
ag4
ag5
aF38.4
aF204.8
aF159.1
aF272.9
aa(lp870
(lp871
F168.0
aF226.0
aF184.0
aF240.0
aaaF0.739
aa(lp872
(lp873
S'000179'
p874
ag4
ag5
aF302.7
aF436.7
aF353.7
aF461.1
aa(lp875
aF0.732
aa(lp876
(lp877
S'000961'
p878
ag4
ag5
aF287.8
aF122.7
aF314.2
aF149.2
aa(lp879
(lp880
F344.0
aF134.0
aF375.0
aF194.0
aa(lp881
F317.0
aF125.0
aF365.0
aF172.0
aa(lp882
F308.0
aF130.0
aF317.0
aF160.0
aa(lp883
F294.0
aF134.0
aF310.0
aF157.0
aa(lp884
F281.0
aF131.0
aF298.0
aF147.0
aaaF0.73
aa(lp885
(lp886
S'002832'
p887
ag4
ag5
aF178.5
aF67.7
aF319.1
aF212.0
aa(lp888
aF0.73
aa(lp889
(lp890
S'004492'
p891
ag4
ag5
aF55.9
aF2.9
aF472.4
aF277.2
aa(lp892
(lp893
F123.0
aF1.0
aF394.0
aF165.0
aaaF0.727
aa(lp894
(lp895
S'005534'
p896
ag4
ag5
aF437.5
aF102.6
aF500.0
aF195.8
aa(lp897
aF0.723
aa(lp898
(lp899
S'005091'
p900
ag4
ag5
aF342.2
aF164.0
aF429.5
aF251.9
aa(lp901
(lp902
F213.0
aF125.0
aF435.0
aF254.0
aa(lp903
F54.0
aF66.0
aF199.0
aF151.0
aa(lp904
F247.0
aF96.0
aF448.0
aF171.0
aaaF0.722
aa(lp905
(lp906
S'000696'
p907
ag4
ag5
aF414.6
aF120.5
aF484.1
aF154.3
aa(lp908
aF0.719
aa(lp909
(lp910
S'001188'
p911
ag4
ag5
aF378.0
aF99.8
aF409.9
aF122.7
aa(lp912
aF0.714
aa(lp913
(lp914
S'003769'
p915
ag4
ag5
aF41.0
aF100.5
aF299.1
aF178.6
aa(lp916
(lp917
F14.0
aF139.0
aF306.0
aF346.0
aa(lp918
F286.0
aF132.0
aF319.0
aF205.0
aa(lp919
F222.0
aF100.0
aF306.0
aF120.0
aa(lp920
F105.0
aF97.0
aF233.0
aF123.0
aa(lp921
F2.0
aF101.0
aF142.0
aF129.0
aaaF0.712
aa(lp922
(lp923
S'002679'
p924
ag4
ag5
aF101.7
aF5.6
aF453.4
aF372.7
aa(lp925
aF0.71
aa(lp926
(lp927
S'009430'
p928
ag4
ag5
aF272.1
aF31.2
aF340.4
aF58.6
aa(lp929
(lp930
F1.0
aF51.0
aF500.0
aF354.0
aaaF0.706
aa(lp931
(lp932
S'005035'
p933
ag4
ag5
aF90.1
aF1.7
aF160.9
aF58.1
aa(lp934
(lp935
F33.0
aF35.0
aF483.0
aF292.0
aa(lp936
F429.0
aF18.0
aF500.0
aF73.0
aa(lp937
F2.0
aF27.0
aF54.0
aF105.0
aaaF0.706
aa(lp938
(lp939
S'000727'
p940
ag4
ag5
aF275.1
aF365.2
aF299.4
aF391.5
aa(lp941
(lp942
F272.0
aF369.0
aF323.0
aF388.0
aa(lp943
F2.0
aF380.0
aF89.0
aF435.0
aa(lp944
F49.0
aF367.0
aF90.0
aF389.0
aa(lp945
F113.0
aF138.0
aF160.0
aF164.0
aaaF0.705
aa(lp946
(lp947
S'006407'
p948
ag4
ag5
aF138.1
aF242.2
aF378.9
aF345.1
aa(lp949
aF0.705
aa(lp950
(lp951
S'009322'
p952
ag4
ag5
aF205.0
aF182.7
aF232.0
aF220.2
aa(lp953
(lp954
F1.0
aF224.0
aF47.0
aF277.0
aa(lp955
F31.0
aF220.0
aF93.0
aF264.0
aa(lp956
F72.0
aF209.0
aF130.0
aF256.0
aa(lp957
F119.0
aF214.0
aF156.0
aF252.0
aa(lp958
F140.0
aF212.0
aF178.0
aF245.0
aa(lp959
F154.0
aF195.0
aF205.0
aF240.0
aa(lp960
F273.0
aF200.0
aF293.0
aF217.0
aaaF0.701
aa(lp961
(lp962
S'008785'
p963
ag4
ag5
aF72.9
aF59.1
aF212.3
aF139.3
aa(lp964
(lp965
F1.0
aF39.0
aF447.0
aF368.0
aa(lp966
F5.0
aF56.0
aF227.0
aF182.0
aaaF0.694
aa(lp967
(lp968
S'005091'
p969
ag4
ag5
aF234.3
aF168.0
aF316.7
aF243.7
aa(lp970
(lp971
F213.0
aF125.0
aF435.0
aF254.0
aa(lp972
F54.0
aF66.0
aF199.0
aF151.0
aa(lp973
F247.0
aF96.0
aF448.0
aF171.0
aaaF0.693
aa(lp974
(lp975
S'003052'
p976
ag4
ag5
aF214.2
aF59.4
aF316.7
aF123.7
aa(lp977
(lp978
F3.0
aF58.0
aF211.0
aF169.0
aa(lp979
F111.0
aF56.0
aF259.0
aF127.0
aaaF0.693
aa(lp980
(lp981
S'003501'
p982
ag4
ag5
aF282.1
aF64.2
aF386.7
aF287.5
aa(lp983
(lp984
F107.0
aF8.0
aF398.0
aF288.0
aaaF0.693
aa(lp985
(lp986
S'000858'
p987
ag4
ag5
aF475.4
aF224.3
aF500.0
aF256.4
aa(lp988
aF0.687
aa(lp989
(lp990
S'002370'
p991
ag4
ag5
aF213.8
aF209.1
aF291.2
aF255.1
aa(lp992
(lp993
F395.0
aF189.0
aF432.0
aF208.0
aa(lp994
F355.0
aF174.0
aF391.0
aF213.0
aaaF0.683
aa(lp995
(lp996
S'005523'
p997
ag4
ag5
aF112.9
aF36.9
aF500.0
aF178.2
aa(lp998
(lp999
F1.0
aF4.0
aF493.0
aF340.0
aaaF0.682
aa(lp1000
(lp1001
S'008047'
p1002
ag4
ag5
aF96.9
aF1.0
aF175.0
aF71.9
aa(lp1003
(lp1004
F150.0
aF1.0
aF324.0
aF184.0
aa(lp1005
F250.0
aF30.0
aF375.0
aF349.0
aa(lp1006
F121.0
aF1.0
aF170.0
aF107.0
aa(lp1007
F98.0
aF1.0
aF133.0
aF71.0
aaaF0.679
aa(lp1008
(lp1009
S'004629'
p1010
ag4
ag5
aF2.0
aF181.1
aF40.1
aF213.4
aa(lp1011
aF0.678
aa(lp1012
(lp1013
S'006113'
p1014
ag4
ag5
aF434.8
aF199.7
aF497.6
aF301.9
aa(lp1015
(lp1016
F162.0
aF166.0
aF211.0
aF243.0
aaaF0.677
aa(lp1017
(lp1018
S'009119'
p1019
ag4
ag5
aF249.6
aF129.7
aF402.2
aF191.8
aa(lp1020
(lp1021
F152.0
aF175.0
aF452.0
aF303.0
aa(lp1022
F313.0
aF128.0
aF385.0
aF179.0
aa(lp1023
F292.0
aF137.0
aF325.0
aF172.0
aa(lp1024
F272.0
aF140.0
aF300.0
aF174.0
aa(lp1025
F259.0
aF147.0
aF282.0
aF174.0
aaaF0.672
aa(lp1026
(lp1027
S'007126'
p1028
ag4
ag5
aF1.2
aF265.8
aF79.5
aF329.0
aa(lp1029
(lp1030
F1.0
aF69.0
aF143.0
aF181.0
aaaF0.672
aa(lp1031
(lp1032
S'001188'
p1033
ag4
ag5
aF402.6
aF62.9
aF442.1
aF86.2
aa(lp1034
aF0.669
aa(lp1035
(lp1036
S'000074'
p1037
ag4
ag5
aF60.7
aF61.0
aF178.1
aF199.7
aa(lp1038
(lp1039
F58.0
aF61.0
aF475.0
aF283.0
aaaF0.664
aa(lp1040
(lp1041
S'008686'
p1042
ag4
ag5
aF153.2
aF61.1
aF219.5
aF132.4
aa(lp1043
aF0.664
aa(lp1044
(lp1045
S'004473'
p1046
ag4
ag5
aF214.3
aF132.3
aF339.2
aF205.9
aa(lp1047
aF0.663
aa(lp1048
a(lp1049
a(lp1050
a(lp1051
a(lp1052
a(lp1053
a(lp1054
a(lp1055
a(lp1056
a(lp1057
a(lp1058
a(lp1059
a(lp1060
a(lp1061
a(lp1062
a(lp1063
a(lp1064
a(lp1065
a(lp1066
a(lp1067
a(lp1068
a(lp1069
a(lp1070
a(lp1071
a(lp1072
a(lp1073
a(lp1074
a(lp1075
a(lp1076
a(lp1077
a(lp1078
a(lp1079
a(lp1080
a(lp1081
a(lp1082
a(lp1083
a(lp1084
a(lp1085
a(lp1086
a(lp1087
a(lp1088
a(lp1089
a(lp1090
a(lp1091
a(lp1092
a(lp1093
a(lp1094
a(lp1095
a(lp1096
a(lp1097
a(lp1098
a(lp1099
a(lp1100
a(lp1101
a(lp1102
a(lp1103
a(lp1104
a(lp1105
a(lp1106
a(lp1107
a(lp1108
a(lp1109
a(lp1110
a(lp1111
a(lp1112
a(lp1113
a(lp1114
a(lp1115
a(lp1116
a(lp1117
a(lp1118
a(lp1119
a(lp1120
a(lp1121
a(lp1122
a(lp1123
a(lp1124
a(lp1125
a(lp1126
a(lp1127
a(lp1128
a(lp1129
a(lp1130
a(lp1131
a(lp1132
a(lp1133
a(lp1134
a(lp1135
a(lp1136
a(lp1137
a(lp1138
a(lp1139
a(lp1140
a(lp1141
a(lp1142
a(lp1143
a(lp1144
a(lp1145
a(lp1146
a(lp1147
a(lp1148
a(lp1149
a(lp1150
a(lp1151
a(lp1152
a(lp1153
a(lp1154
a(lp1155
a(lp1156
a(lp1157
a(lp1158
a(lp1159
a(lp1160
a(lp1161
a(lp1162
a(lp1163
a(lp1164
a(lp1165
a(lp1166
a(lp1167
a(lp1168
a(lp1169
a(lp1170
a(lp1171
a(lp1172
a(lp1173
a(lp1174
a(lp1175
a(lp1176
a(lp1177
a(lp1178
a(lp1179
a(lp1180
a(lp1181
a(lp1182
a(lp1183
a(lp1184
a(lp1185
a(lp1186
a(lp1187
a(lp1188
a(lp1189
a(lp1190
a(lp1191
a(lp1192
a(lp1193
a(lp1194
a(lp1195
a(lp1196
a(lp1197
a(lp1198
a(lp1199
a(lp1200
a(lp1201
a(lp1202
a(lp1203
a(lp1204
a(lp1205
a(lp1206
a(lp1207
a(lp1208
a(lp1209
a(lp1210
a(lp1211
a(lp1212
a(lp1213
a(lp1214
a(lp1215
a(lp1216
a(lp1217
a(lp1218
a(lp1219
a(lp1220
a(lp1221
a(lp1222
a(lp1223
a(lp1224
a(lp1225
a(lp1226
a(lp1227
a(lp1228
a(lp1229
a(lp1230
a(lp1231
a(lp1232
a(lp1233
a(lp1234
a(lp1235
a(lp1236
a(lp1237
a(lp1238
a(lp1239
a(lp1240
a(lp1241
a(lp1242
a(lp1243
a(lp1244
a(lp1245
a(lp1246
a(lp1247
a(lp1248
a(lp1249
a(lp1250
a(lp1251
a(lp1252
a(lp1253
a(lp1254
a(lp1255
a(lp1256
a(lp1257
a(lp1258
a(lp1259
a(lp1260
a(lp1261
a(lp1262
a(lp1263
a(lp1264
a(lp1265
a(lp1266
a(lp1267
a(lp1268
a(lp1269
a(lp1270
a(lp1271
a(lp1272
a(lp1273
a(lp1274
a(lp1275
a(lp1276
a(lp1277
a(lp1278
a(lp1279
a(lp1280
a(lp1281
a(lp1282
a(lp1283
a(lp1284
a(lp1285
a(lp1286
a(lp1287
a(lp1288
a(lp1289
a(lp1290
a(lp1291
a(lp1292
a(lp1293
a(lp1294
a(lp1295
a(lp1296
a(lp1297
a(lp1298
a(lp1299
a(lp1300
a(lp1301
a(lp1302
a(lp1303
a(lp1304
a(lp1305
a(lp1306
a(lp1307
a(lp1308
a(lp1309
a(lp1310
a(lp1311
a(lp1312
a(lp1313
a(lp1314
a(lp1315
a(lp1316
a(lp1317
a(lp1318
a(lp1319
a(lp1320
a(lp1321
a(lp1322
a(lp1323
a(lp1324
a(lp1325
a(lp1326
a(lp1327
a(lp1328
a(lp1329
a(lp1330
a(lp1331
a(lp1332
a(lp1333
a(lp1334
a(lp1335
a(lp1336
a(lp1337
a(lp1338
a(lp1339
a(lp1340
a(lp1341
a(lp1342
a(lp1343
a(lp1344
a(lp1345
a(lp1346
a(lp1347
a(lp1348
a(lp1349
a(lp1350
a(lp1351
a(lp1352
a(lp1353
a(lp1354
a(lp1355
a(lp1356
a(lp1357
a(lp1358
a(lp1359
a(lp1360
a(lp1361
a(lp1362
a(lp1363
a(lp1364
a(lp1365
a(lp1366
a(lp1367
a(lp1368
a(lp1369
a(lp1370
a(lp1371
a(lp1372
a(lp1373
a(lp1374
a(lp1375
a(lp1376
a(lp1377
a(lp1378
a(lp1379
a(lp1380
a(lp1381
a(lp1382
a(lp1383
a(lp1384
a(lp1385
a(lp1386
a(lp1387
a(lp1388
a(lp1389
a(lp1390
a(lp1391
a(lp1392
a(lp1393
a(lp1394
a(lp1395
a(lp1396
a(lp1397
a(lp1398
a(lp1399
a(lp1400
a(lp1401
a(lp1402
a(lp1403
a(lp1404
a(lp1405
a(lp1406
a(lp1407
a(lp1408
a(lp1409
a(lp1410
a(lp1411
a(lp1412
a(lp1413
a(lp1414
a(lp1415
a(lp1416
a(lp1417
a(lp1418
a(lp1419
a(lp1420
a(lp1421
a(lp1422
a(lp1423
a(lp1424
a(lp1425
a(lp1426
a(lp1427
a(lp1428
a(lp1429
a(lp1430
a(lp1431
a(lp1432
a(lp1433
a(lp1434
a(lp1435
a(lp1436
a(lp1437
a(lp1438
a(lp1439
a(lp1440
a(lp1441
a(lp1442
a(lp1443
a(lp1444
a(lp1445
a(lp1446
a(lp1447
a(lp1448
a(lp1449
a(lp1450
a(lp1451
a(lp1452
a(lp1453
a(lp1454
a(lp1455
a(lp1456
a(lp1457
a(lp1458
a(lp1459
a(lp1460
a(lp1461
a(lp1462
a(lp1463
a(lp1464
a(lp1465
a(lp1466
a(lp1467
a(lp1468
a(lp1469
a(lp1470
a(lp1471
a(lp1472
a(lp1473
a(lp1474
a(lp1475
a(lp1476
a(lp1477
a(lp1478
a(lp1479
a(lp1480
a(lp1481
a(lp1482
a(lp1483
a(lp1484
a(lp1485
a(lp1486
a(lp1487
a(lp1488
a(lp1489
a(lp1490
a(lp1491
a(lp1492
a(lp1493
a(lp1494
a(lp1495
a(lp1496
a(lp1497
a(lp1498
a(lp1499
a(lp1500
a(lp1501
a(lp1502
a(lp1503
a(lp1504
a(lp1505
a(lp1506
a(lp1507
a(lp1508
a(lp1509
a(lp1510
a(lp1511
a(lp1512
a(lp1513
a(lp1514
a(lp1515
a(lp1516
a(lp1517
a(lp1518
a(lp1519
a(lp1520
a(lp1521
a(lp1522
a(lp1523
a(lp1524
a(lp1525
a(lp1526
a(lp1527
a(lp1528
a(lp1529
a(lp1530
a(lp1531
a(lp1532
a(lp1533
a(lp1534
a(lp1535
a(lp1536
a(lp1537
a(lp1538
a(lp1539
a(lp1540
a(lp1541
a(lp1542
a(lp1543
a(lp1544
a(lp1545
a(lp1546
a(lp1547
a(lp1548
a(lp1549
a(lp1550
a(lp1551
a(lp1552
a(lp1553
a(lp1554
a(lp1555
a(lp1556
a(lp1557
a(lp1558
a(lp1559
a(lp1560
a(lp1561
a(lp1562
a(lp1563
a(lp1564
a(lp1565
a(lp1566
a(lp1567
a(lp1568
a(lp1569
a(lp1570
a(lp1571
a(lp1572
a(lp1573
a(lp1574
a(lp1575
a(lp1576
a(lp1577
a(lp1578
a(lp1579
a(lp1580
a(lp1581
a(lp1582
a(lp1583
a(lp1584
a(lp1585
a(lp1586
a(lp1587
a(lp1588
a(lp1589
a(lp1590
a(lp1591
a(lp1592
a(lp1593
a(lp1594
a(lp1595
a(lp1596
a(lp1597
a(lp1598
a(lp1599
a(lp1600
a(lp1601
a(lp1602
a(lp1603
a(lp1604
a(lp1605
a(lp1606
a(lp1607
a(lp1608
a(lp1609
a(lp1610
a(lp1611
a(lp1612
a(lp1613
a(lp1614
a(lp1615
a(lp1616
a(lp1617
a(lp1618
a(lp1619
a(lp1620
a(lp1621
a(lp1622
a(lp1623
a(lp1624
a(lp1625
a(lp1626
a(lp1627
a(lp1628
a(lp1629
a(lp1630
a(lp1631
a(lp1632
a(lp1633
a(lp1634
a(lp1635
a(lp1636
a(lp1637
a(lp1638
a(lp1639
a(lp1640
a(lp1641
a(lp1642
a(lp1643
a(lp1644
a(lp1645
a(lp1646
a(lp1647
a(lp1648
a(lp1649
a(lp1650
a(lp1651
a(lp1652
a(lp1653
a(lp1654
a(lp1655
a(lp1656
a(lp1657
a(lp1658
a(lp1659
a(lp1660
a(lp1661
a(lp1662
a(lp1663
a(lp1664
a(lp1665
a(lp1666
a(lp1667
a(lp1668
a(lp1669
a(lp1670
a(lp1671
a(lp1672
a(lp1673
a(lp1674
a(lp1675
a(lp1676
a(lp1677
a(lp1678
a(lp1679
a(lp1680
a(lp1681
a(lp1682
a(lp1683
a(lp1684
a(lp1685
a(lp1686
a(lp1687
a(lp1688
a(lp1689
a(lp1690
a(lp1691
a(lp1692
a(lp1693
a(lp1694
a(lp1695
a(lp1696
a(lp1697
a(lp1698
a(lp1699
a(lp1700
a(lp1701
a(lp1702
a(lp1703
a(lp1704
a(lp1705
a(lp1706
a(lp1707
a(lp1708
a(lp1709
a(lp1710
a(lp1711
a(lp1712
a(lp1713
a(lp1714
a(lp1715
a(lp1716
a(lp1717
a(lp1718
a(lp1719
a(lp1720
a(lp1721
a(lp1722
a(lp1723
a(lp1724
a(lp1725
a(lp1726
a(lp1727
a(lp1728
a(lp1729
a(lp1730
a(lp1731
a(lp1732
a(lp1733
a(lp1734
a(lp1735
a(lp1736
a(lp1737
a(lp1738
a(lp1739
a(lp1740
a(lp1741
a(lp1742
a(lp1743
a(lp1744
a(lp1745
a(lp1746
a(lp1747
a(lp1748
a(lp1749
a(lp1750
a(lp1751
a(lp1752
a(lp1753
a(lp1754
a(lp1755
a(lp1756
a(lp1757
a(lp1758
a(lp1759
a(lp1760
a(lp1761
a(lp1762
a(lp1763
a(lp1764
a(lp1765
a(lp1766
a(lp1767
a(lp1768
a(lp1769
a(lp1770
a(lp1771
a(lp1772
a(lp1773
a(lp1774
a(lp1775
a(lp1776
a(lp1777
a(lp1778
a(lp1779
a(lp1780
a(lp1781
a(lp1782
a(lp1783
a(lp1784
a(lp1785
a(lp1786
a(lp1787
a(lp1788
a(lp1789
a(lp1790
a(lp1791
a(lp1792
a(lp1793
a(lp1794
a(lp1795
a(lp1796
a(lp1797
a(lp1798
a(lp1799
a(lp1800
a(lp1801
a(lp1802
a(lp1803
a(lp1804
a(lp1805
a(lp1806
a(lp1807
a(lp1808
a(lp1809
a(lp1810
a(lp1811
a(lp1812
a(lp1813
a(lp1814
a(lp1815
a(lp1816
a(lp1817
a(lp1818
a(lp1819
a(lp1820
a(lp1821
a(lp1822
a(lp1823
a(lp1824
a(lp1825
a(lp1826
a(lp1827
a(lp1828
a(lp1829
a(lp1830
a(lp1831
a(lp1832
a(lp1833
a(lp1834
a(lp1835
a(lp1836
a(lp1837
a(lp1838
a(lp1839
a(lp1840
a(lp1841
a(lp1842
a(lp1843
a(lp1844
a(lp1845
a(lp1846
a(lp1847
a(lp1848
a(lp1849
a(lp1850
a(lp1851
a(lp1852
a(lp1853
a(lp1854
a(lp1855
a(lp1856
a(lp1857
a(lp1858
a(lp1859
a(lp1860
a(lp1861
a(lp1862
a(lp1863
a(lp1864
a(lp1865
a(lp1866
a(lp1867
a(lp1868
a(lp1869
a(lp1870
a(lp1871
a(lp1872
a(lp1873
a(lp1874
a(lp1875
a(lp1876
a(lp1877
a(lp1878
a(lp1879
a(lp1880
a(lp1881
a(lp1882
a(lp1883
a(lp1884
a(lp1885
a(lp1886
a(lp1887
a(lp1888
a(lp1889
a(lp1890
a(lp1891
a(lp1892
a(lp1893
a(lp1894
a(lp1895
a(lp1896
a(lp1897
a(lp1898
a(lp1899
a(lp1900
a(lp1901
a(lp1902
a(lp1903
a(lp1904
a(lp1905
a(lp1906
a(lp1907
a(lp1908
a(lp1909
a(lp1910
a(lp1911
a(lp1912
a(lp1913
a(lp1914
a(lp1915
a(lp1916
a(lp1917
a(lp1918
a(lp1919
a(lp1920
a(lp1921
a(lp1922
a(lp1923
a(lp1924
a(lp1925
a(lp1926
a(lp1927
a(lp1928
a(lp1929
a(lp1930
a(lp1931
a(lp1932
a(lp1933
a(lp1934
a(lp1935
a(lp1936
a(lp1937
a(lp1938
a(lp1939
a(lp1940
a(lp1941
a(lp1942
a(lp1943
a(lp1944
a(lp1945
a(lp1946
a(lp1947
a(lp1948
a(lp1949
a(lp1950
a(lp1951
a(lp1952
a(lp1953
a(lp1954
a(lp1955
a(lp1956
a(lp1957
a(lp1958
a(lp1959
a(lp1960
a(lp1961
a(lp1962
a(lp1963
a(lp1964
a(lp1965
a(lp1966
a(lp1967
a(lp1968
a(lp1969
a(lp1970
a(lp1971
a(lp1972
a(lp1973
a(lp1974
a(lp1975
a(lp1976
a(lp1977
a(lp1978
a(lp1979
a(lp1980
a(lp1981
a(lp1982
a(lp1983
a(lp1984
a(lp1985
a(lp1986
a(lp1987
a(lp1988
a(lp1989
a(lp1990
a(lp1991
a(lp1992
a(lp1993
a(lp1994
a(lp1995
a(lp1996
a(lp1997
a(lp1998
a(lp1999
a(lp2000
a(lp2001
a(lp2002
a(lp2003
a(lp2004
a(lp2005
a(lp2006
a(lp2007
a(lp2008
a(lp2009
a(lp2010
a(lp2011
a(lp2012
a(lp2013
a(lp2014
a(lp2015
a(lp2016
a(lp2017
a(lp2018
a(lp2019
a(lp2020
a(lp2021
a(lp2022
a(lp2023
a(lp2024
a(lp2025
a(lp2026
a(lp2027
a(lp2028
a(lp2029
a(lp2030
a(lp2031
a(lp2032
a(lp2033
a(lp2034
a(lp2035
a(lp2036
a(lp2037
a(lp2038
a(lp2039
a(lp2040
a(lp2041
a(lp2042
a(lp2043
a(lp2044
a(lp2045
a(lp2046
a(lp2047
a(lp2048
a(lp2049
a(lp2050
a(lp2051
a(lp2052
a(lp2053
a(lp2054
a(lp2055
a(lp2056
a(lp2057
a(lp2058
a(lp2059
a(lp2060
a(lp2061
a(lp2062
a(lp2063
a(lp2064
a(lp2065
a(lp2066
a(lp2067
a(lp2068
a(lp2069
a(lp2070
a(lp2071
a(lp2072
a(lp2073
a(lp2074
a(lp2075
a(lp2076
a(lp2077
a(lp2078
a(lp2079
a(lp2080
a(lp2081
a.