(lp0
(lp1
(lp2
S'006818'
p3
aS'cat'
p4
aS'err_lowIoU'
p5
aF214.7
aF132.9
aF465.5
aF245.0
aa(lp6
(lp7
F216.0
aF144.0
aF485.0
aF328.0
aaaa(lp8
(lp9
S'001216'
p10
ag4
ag5
aF111.7
aF126.4
aF200.5
aF233.6
aa(lp11
(lp12
F316.0
aF64.0
aF380.0
aF159.0
aa(lp13
F1.0
aF137.0
aF196.0
aF250.0
aaaa(lp14
(lp15
S'006960'
p16
ag4
ag5
aF58.3
aF75.9
aF392.1
aF337.9
aa(lp17
(lp18
F203.0
aF52.0
aF415.0
aF307.0
aa(lp19
F25.0
aF151.0
aF316.0
aF356.0
aaaa(lp20
(lp21
S'005149'
p22
ag4
ag5
aF172.8
aF107.3
aF500.0
aF319.9
aa(lp23
aa(lp24
(lp25
S'007938'
p26
ag4
ag5
aF1.0
aF82.1
aF461.7
aF301.8
aa(lp27
(lp28
F17.0
aF137.0
aF289.0
aF275.0
aa(lp29
F179.0
aF79.0
aF440.0
aF218.0
aaaa(lp30
(lp31
S'008182'
p32
ag4
ag5
aF184.5
aF115.2
aF473.4
aF254.1
aa(lp33
(lp34
F39.0
aF30.0
aF448.0
aF248.0
aaaa(lp35
(lp36
S'004577'
p37
ag4
ag5
aF57.6
aF71.7
aF462.4
aF308.2
aa(lp38
(lp39
F79.0
aF80.0
aF267.0
aF195.0
aa(lp40
F212.0
aF89.0
aF426.0
aF271.0
aaaa(lp41
(lp42
S'000227'
p43
ag4
ag5
aF211.3
aF133.1
aF360.3
aF340.6
aa(lp44
(lp45
F220.0
aF123.0
aF473.0
aF354.0
aaaa(lp46
(lp47
S'000011'
p48
ag4
ag5
aF139.5
aF45.2
aF250.5
aF154.8
aa(lp49
(lp50
F126.0
aF51.0
aF330.0
aF308.0
aaaa(lp51
(lp52
S'007463'
p53
ag4
ag5
aF141.2
aF1.0
aF364.2
aF329.0
aa(lp54
(lp55
F219.0
aF3.0
aF375.0
aF500.0
aaaa(lp56
(lp57
S'003816'
p58
ag4
ag5
aF267.0
aF80.0
aF444.4
aF253.5
aa(lp59
(lp60
F1.0
aF22.0
aF424.0
aF245.0
aaaa(lp61
(lp62
S'002205'
p63
ag4
aS'err_repeat'
p64
aF206.3
aF1.0
aF500.0
aF368.5
aa(lp65
(lp66
F48.0
aF1.0
aF500.0
aF355.0
aaaa(lp67
(lp68
S'002694'
p69
ag4
ag5
aF293.1
aF67.4
aF451.4
aF284.9
aa(lp70
(lp71
F10.0
aF48.0
aF459.0
aF284.0
aaaa(lp72
(lp73
S'008340'
p74
ag4
ag5
aF5.8
aF2.3
aF349.7
aF302.7
aa(lp75
aa(lp76
(lp77
S'000785'
p78
ag4
ag5
aF1.0
aF28.2
aF478.4
aF325.8
aa(lp79
aa(lp80
(lp81
S'006090'
p82
ag4
ag5
aF9.8
aF277.0
aF215.1
aF492.0
aa(lp83
(lp84
F46.0
aF68.0
aF375.0
aF500.0
aaaa(lp85
(lp86
S'002075'
p87
ag4
ag5
aF70.0
aF40.2
aF434.2
aF316.0
aa(lp88
aa(lp89
(lp90
S'008419'
p91
ag4
ag5
aF101.8
aF171.9
aF224.1
aF301.7
aa(lp92
aa(lp93
(lp94
S'004915'
p95
ag4
ag5
aF38.5
aF18.4
aF309.5
aF263.9
aa(lp96
aa(lp97
(lp98
S'005149'
p99
ag4
ag5
aF201.1
aF1.0
aF352.6
aF158.2
aa(lp100
aa(lp101
(lp102
S'000452'
p103
ag4
ag5
aF101.1
aF128.7
aF288.7
aF236.6
aa(lp104
aa(lp105
(lp106
S'001520'
p107
ag4
ag5
aF306.7
aF96.3
aF451.7
aF298.7
aa(lp108
(lp109
F5.0
aF124.0
aF472.0
aF374.0
aaaa(lp110
(lp111
S'005538'
p112
ag4
ag5
aF113.6
aF176.0
aF184.9
aF284.4
aa(lp113
(lp114
F115.0
aF174.0
aF278.0
aF274.0
aa(lp115
F45.0
aF280.0
aF163.0
aF416.0
aaaa(lp116
(lp117
S'007409'
p118
ag4
ag5
aF287.5
aF118.8
aF448.3
aF298.6
aa(lp119
(lp120
F99.0
aF106.0
aF457.0
aF334.0
aa(lp121
F74.0
aF56.0
aF348.0
aF174.0
aaaa(lp122
(lp123
S'009604'
p124
ag4
ag5
aF59.3
aF80.8
aF360.7
aF485.5
aa(lp125
aa(lp126
(lp127
S'003782'
p128
ag4
ag5
aF15.3
aF75.9
aF212.5
aF275.8
aa(lp129
(lp130
F33.0
aF46.0
aF451.0
aF308.0
aaaa(lp131
(lp132
S'001763'
p133
ag4
ag5
aF10.2
aF53.3
aF407.4
aF370.7
aa(lp134
(lp135
F281.0
aF119.0
aF500.0
aF375.0
aaaa(lp136
(lp137
S'002725'
p138
ag4
ag5
aF179.9
aF36.7
aF495.4
aF363.0
aa(lp139
aa(lp140
(lp141
S'005939'
p142
ag4
ag5
aF110.1
aF123.1
aF323.3
aF369.2
aa(lp143
(lp144
F190.0
aF138.0
aF327.0
aF279.0
aaaa(lp145
(lp146
S'008493'
p147
ag4
ag5
aF219.8
aF30.5
aF312.2
aF90.7
aa(lp148
aa(lp149
(lp150
S'002485'
p151
ag4
ag5
aF296.4
aF149.6
aF500.0
aF369.4
aa(lp152
aa(lp153
(lp154
S'007875'
p155
ag4
ag5
aF41.2
aF95.4
aF331.1
aF475.8
aa(lp156
aa(lp157
(lp158
S'005051'
p159
ag4
ag5
aF224.0
aF140.1
aF500.0
aF412.0
aa(lp160
aa(lp161
(lp162
S'000651'
p163
ag4
ag5
aF79.4
aF4.6
aF321.8
aF307.3
aa(lp164
(lp165
F87.0
aF4.0
aF496.0
aF373.0
aaaa(lp166
(lp167
S'003920'
p168
ag4
ag5
aF19.4
aF74.1
aF420.5
aF323.9
aa(lp169
aa(lp170
(lp171
S'003778'
p172
ag4
ag5
aF273.0
aF178.4
aF448.0
aF475.2
aa(lp173
(lp174
F38.0
aF67.0
aF443.0
aF466.0
aaaa(lp175
(lp176
S'001006'
p177
ag4
ag5
aF294.3
aF290.8
aF372.6
aF326.3
aa(lp178
aa(lp179
(lp180
S'009107'
p181
ag4
ag5
aF247.5
aF27.4
aF419.0
aF290.4
aa(lp182
(lp183
F1.0
aF44.0
aF422.0
aF374.0
aaaa(lp184
(lp185
S'005289'
p186
ag4
ag5
aF96.8
aF146.0
aF183.1
aF300.5
aa(lp187
aa(lp188
(lp189
S'006487'
p190
ag4
ag5
aF203.2
aF173.4
aF323.8
aF308.6
aa(lp191
aa(lp192
(lp193
S'007106'
p194
ag4
ag5
aF327.0
aF54.6
aF390.4
aF118.2
aa(lp195
aa(lp196
(lp197
S'005744'
p198
ag4
ag5
aF197.2
aF232.9
aF303.3
aF495.0
aa(lp199
aa(lp200
(lp201
S'008497'
p202
ag4
ag5
aF50.0
aF21.0
aF271.7
aF299.3
aa(lp203
(lp204
F70.0
aF1.0
aF488.0
aF294.0
aaaa(lp205
(lp206
S'004428'
p207
ag4
ag5
aF99.0
aF43.3
aF259.4
aF267.6
aa(lp208
aa(lp209
(lp210
S'007231'
p211
ag4
ag5
aF82.1
aF79.9
aF406.7
aF256.4
aa(lp212
aa(lp213
(lp214
S'001824'
p215
ag4
ag5
aF197.9
aF172.8
aF489.8
aF370.3
aa(lp216
aa(lp217
(lp218
S'003418'
p219
ag4
ag5
aF6.5
aF357.8
aF140.9
aF445.4
aa(lp220
aa(lp221
(lp222
S'000255'
p223
ag4
ag5
aF1.0
aF86.8
aF431.5
aF332.8
aa(lp224
aa(lp225
(lp226
S'006607'
p227
ag4
ag5
aF25.5
aF71.7
aF473.0
aF347.6
aa(lp228
aa(lp229
(lp230
S'003283'
p231
ag4
ag5
aF86.0
aF27.4
aF421.3
aF313.5
aa(lp232
aa(lp233
(lp234
S'009310'
p235
ag4
ag5
aF181.5
aF126.3
aF453.1
aF289.5
aa(lp236
(lp237
F176.0
aF128.0
aF259.0
aF240.0
aaaa(lp238
(lp239
S'000673'
p240
ag4
ag5
aF233.0
aF69.5
aF485.4
aF314.7
aa(lp241
(lp242
F1.0
aF1.0
aF485.0
aF333.0
aaaa(lp243
(lp244
S'001751'
p245
ag4
ag5
aF19.7
aF98.5
aF154.6
aF314.3
aa(lp246
aa(lp247
(lp248
S'004407'
p249
ag4
ag5
aF82.6
aF30.7
aF333.0
aF277.5
aa(lp250
aa(lp251
a(lp252
a(lp253
a(lp254
a(lp255
a(lp256
a(lp257
a(lp258
a(lp259
a(lp260
a(lp261
a(lp262
a(lp263
a(lp264
a(lp265
a(lp266
a(lp267
a(lp268
a(lp269
a(lp270
a(lp271
a(lp272
a(lp273
a(lp274
a(lp275
a(lp276
a(lp277
a(lp278
a(lp279
a(lp280
a(lp281
a(lp282
a(lp283
a(lp284
a(lp285
a(lp286
a(lp287
a(lp288
a(lp289
a(lp290
a(lp291
a(lp292
a(lp293
a(lp294
a(lp295
a(lp296
a(lp297
a(lp298
a(lp299
a(lp300
a(lp301
a(lp302
a(lp303
a(lp304
a(lp305
a(lp306
a(lp307
a(lp308
a(lp309
a(lp310
a(lp311
a(lp312
a(lp313
a(lp314
a(lp315
a(lp316
a(lp317
a(lp318
a(lp319
a(lp320
a(lp321
a(lp322
a(lp323
a(lp324
a(lp325
a(lp326
a(lp327
a(lp328
a(lp329
a(lp330
a(lp331
a(lp332
a(lp333
a(lp334
a(lp335
a(lp336
a(lp337
a(lp338
a(lp339
a(lp340
a(lp341
a(lp342
a(lp343
a(lp344
a(lp345
a(lp346
a(lp347
a(lp348
a(lp349
a(lp350
a(lp351
a(lp352
a(lp353
a(lp354
a(lp355
a(lp356
a(lp357
a(lp358
a(lp359
a(lp360
a(lp361
a(lp362
a(lp363
a(lp364
a(lp365
a(lp366
a(lp367
a(lp368
a(lp369
a(lp370
a(lp371
a(lp372
a(lp373
a(lp374
a(lp375
a(lp376
a(lp377
a(lp378
a(lp379
a(lp380
a(lp381
a(lp382
a(lp383
a(lp384
a(lp385
a(lp386
a(lp387
a(lp388
a(lp389
a(lp390
a(lp391
a(lp392
a(lp393
a(lp394
a(lp395
a(lp396
a(lp397
a(lp398
a(lp399
a(lp400
a(lp401
a(lp402
a(lp403
a(lp404
a(lp405
a(lp406
a(lp407
a(lp408
a(lp409
a(lp410
a(lp411
a(lp412
a(lp413
a(lp414
a(lp415
a(lp416
a(lp417
a(lp418
a(lp419
a(lp420
a(lp421
a(lp422
a(lp423
a(lp424
a(lp425
a(lp426
a(lp427
a(lp428
a(lp429
a(lp430
a(lp431
a(lp432
a(lp433
a(lp434
a(lp435
a(lp436
a(lp437
a(lp438
a(lp439
a(lp440
a(lp441
a(lp442
a(lp443
a(lp444
a(lp445
a(lp446
a(lp447
a(lp448
a(lp449
a(lp450
a(lp451
a(lp452
a(lp453
a(lp454
a(lp455
a(lp456
a(lp457
a(lp458
a(lp459
a(lp460
a(lp461
a(lp462
a(lp463
a(lp464
a(lp465
a(lp466
a(lp467
a(lp468
a(lp469
a(lp470
a(lp471
a(lp472
a(lp473
a(lp474
a(lp475
a(lp476
a(lp477
a(lp478
a(lp479
a(lp480
a(lp481
a(lp482
a(lp483
a(lp484
a(lp485
a(lp486
a(lp487
a(lp488
a(lp489
a(lp490
a(lp491
a(lp492
a(lp493
a(lp494
a(lp495
a(lp496
a(lp497
a(lp498
a(lp499
a(lp500
a(lp501
a(lp502
a(lp503
a(lp504
a(lp505
a(lp506
a(lp507
a(lp508
a(lp509
a(lp510
a(lp511
a(lp512
a(lp513
a(lp514
a(lp515
a(lp516
a(lp517
a(lp518
a(lp519
a(lp520
a(lp521
a(lp522
a(lp523
a(lp524
a(lp525
a(lp526
a(lp527
a(lp528
a(lp529
a(lp530
a(lp531
a(lp532
a(lp533
a(lp534
a(lp535
a(lp536
a(lp537
a(lp538
a(lp539
a(lp540
a(lp541
a(lp542
a(lp543
a(lp544
a(lp545
a(lp546
a(lp547
a(lp548
a(lp549
a(lp550
a(lp551
a(lp552
a(lp553
a(lp554
a.