(lp0
(lp1
(lp2
S'003526'
p3
aS'chair'
p4
aS'err_lowIoU'
p5
aF425.5
aF190.7
aF483.2
aF273.8
aa(lp6
(lp7
F376.0
aF160.0
aF419.0
aF234.0
aaaa(lp8
(lp9
S'001276'
p10
ag4
ag5
aF53.0
aF168.4
aF244.6
aF357.4
aa(lp11
(lp12
F1.0
aF155.0
aF86.0
aF199.0
aa(lp13
F397.0
aF153.0
aF439.0
aF193.0
aa(lp14
F118.0
aF163.0
aF200.0
aF223.0
aa(lp15
F141.0
aF175.0
aF238.0
aF331.0
aa(lp16
F12.0
aF220.0
aF184.0
aF374.0
aa(lp17
F309.0
aF160.0
aF397.0
aF288.0
aa(lp18
F392.0
aF176.0
aF476.0
aF308.0
aa(lp19
F467.0
aF223.0
aF500.0
aF279.0
aa(lp20
F472.0
aF160.0
aF500.0
aF206.0
aaaa(lp21
(lp22
S'001674'
p23
ag4
ag5
aF48.3
aF297.9
aF159.1
aF370.5
aa(lp24
(lp25
F213.0
aF287.0
aF292.0
aF324.0
aa(lp26
F45.0
aF289.0
aF110.0
aF375.0
aa(lp27
F132.0
aF323.0
aF240.0
aF375.0
aa(lp28
F360.0
aF298.0
aF391.0
aF375.0
aaaa(lp29
(lp30
S'003438'
p31
ag4
ag5
aF263.0
aF236.2
aF353.6
aF338.5
aa(lp32
(lp33
F164.0
aF22.0
aF355.0
aF340.0
aaaa(lp34
(lp35
S'009397'
p36
ag4
ag5
aF405.0
aF207.8
aF499.0
aF371.4
aa(lp37
(lp38
F105.0
aF188.0
aF190.0
aF286.0
aaaa(lp39
(lp40
S'005044'
p41
ag4
ag5
aF428.2
aF93.7
aF489.8
aF248.4
aa(lp42
(lp43
F297.0
aF113.0
aF429.0
aF331.0
aa(lp44
F65.0
aF109.0
aF266.0
aF331.0
aa(lp45
F1.0
aF109.0
aF111.0
aF331.0
aa(lp46
F98.0
aF106.0
aF201.0
aF256.0
aa(lp47
F1.0
aF105.0
aF41.0
aF188.0
aaaa(lp48
(lp49
S'008436'
p50
ag4
ag5
aF3.9
aF191.1
aF95.8
aF375.0
aa(lp51
aa(lp52
(lp53
S'006516'
p54
ag4
ag5
aF55.2
aF243.0
aF212.3
aF375.0
aa(lp55
aa(lp56
(lp57
S'003434'
p58
ag4
ag5
aF5.0
aF225.3
aF77.5
aF330.9
aa(lp59
aa(lp60
(lp61
S'002167'
p62
ag4
ag5
aF235.5
aF144.1
aF396.9
aF320.9
aa(lp63
(lp64
F298.0
aF173.0
aF363.0
aF331.0
aa(lp65
F338.0
aF139.0
aF402.0
aF325.0
aaaa(lp66
(lp67
S'000839'
p68
ag4
ag5
aF102.5
aF125.9
aF191.0
aF261.3
aa(lp69
aa(lp70
(lp71
S'000384'
p72
ag4
ag5
aF36.8
aF118.9
aF186.4
aF275.0
aa(lp73
aa(lp74
(lp75
S'001319'
p76
ag4
ag5
aF263.2
aF173.0
aF490.1
aF373.2
aa(lp77
(lp78
F68.0
aF204.0
aF254.0
aF375.0
aaaa(lp79
(lp80
S'001243'
p81
ag4
ag5
aF1.7
aF29.2
aF48.3
aF107.5
aa(lp82
aa(lp83
(lp84
S'000994'
p85
ag4
ag5
aF279.9
aF161.8
aF456.8
aF335.7
aa(lp86
(lp87
F310.0
aF147.0
aF419.0
aF236.0
aaaa(lp88
(lp89
S'004250'
p90
ag4
ag5
aF67.0
aF115.1
aF166.3
aF284.1
aa(lp91
(lp92
F138.0
aF105.0
aF164.0
aF139.0
aa(lp93
F125.0
aF111.0
aF158.0
aF150.0
aa(lp94
F117.0
aF117.0
aF153.0
aF162.0
aa(lp95
F102.0
aF129.0
aF146.0
aF197.0
aa(lp96
F79.0
aF149.0
aF137.0
aF221.0
aa(lp97
F61.0
aF162.0
aF128.0
aF284.0
aa(lp98
F4.0
aF206.0
aF93.0
aF405.0
aa(lp99
F3.0
aF409.0
aF56.0
aF479.0
aa(lp100
F111.0
aF99.0
aF137.0
aF126.0
aaaa(lp101
(lp102
S'003141'
p103
ag4
ag5
aF2.4
aF200.9
aF184.9
aF369.8
aa(lp104
(lp105
F249.0
aF158.0
aF320.0
aF202.0
aa(lp106
F326.0
aF165.0
aF390.0
aF228.0
aa(lp107
F391.0
aF188.0
aF457.0
aF340.0
aa(lp108
F389.0
aF219.0
aF500.0
aF375.0
aa(lp109
F132.0
aF162.0
aF192.0
aF234.0
aa(lp110
F74.0
aF182.0
aF138.0
aF277.0
aa(lp111
F1.0
aF214.0
aF95.0
aF369.0
aa(lp112
F47.0
aF314.0
aF302.0
aF375.0
aaaa(lp113
(lp114
S'000280'
p115
ag4
ag5
aF6.8
aF148.9
aF108.0
aF316.6
aa(lp116
aa(lp117
(lp118
S'003624'
p119
ag4
ag5
aF112.6
aF212.0
aF151.3
aF278.0
aa(lp120
aa(lp121
(lp122
S'005597'
p123
ag4
ag5
aF290.6
aF159.0
aF413.6
aF346.2
aa(lp124
(lp125
F334.0
aF151.0
aF390.0
aF188.0
aa(lp126
F248.0
aF152.0
aF282.0
aF196.0
aa(lp127
F204.0
aF161.0
aF251.0
aF208.0
aa(lp128
F149.0
aF165.0
aF210.0
aF225.0
aa(lp129
F109.0
aF172.0
aF163.0
aF234.0
aa(lp130
F11.0
aF182.0
aF99.0
aF259.0
aa(lp131
F1.0
aF231.0
aF132.0
aF375.0
aa(lp132
F392.0
aF159.0
aF418.0
aF274.0
aa(lp133
F362.0
aF172.0
aF407.0
aF306.0
aa(lp134
F338.0
aF179.0
aF379.0
aF333.0
aa(lp135
F271.0
aF188.0
aF354.0
aF368.0
aa(lp136
F163.0
aF202.0
aF295.0
aF375.0
aaaa(lp137
(lp138
S'003438'
p139
ag4
ag5
aF355.4
aF217.8
aF441.4
aF353.6
aa(lp140
(lp141
F164.0
aF22.0
aF355.0
aF340.0
aaaa(lp142
(lp143
S'002510'
p144
ag4
ag5
aF163.0
aF106.3
aF265.1
aF176.5
aa(lp145
(lp146
F3.0
aF127.0
aF177.0
aF271.0
aa(lp147
F270.0
aF101.0
aF291.0
aF128.0
aa(lp148
F245.0
aF90.0
aF274.0
aF112.0
aa(lp149
F167.0
aF91.0
aF195.0
aF117.0
aa(lp150
F178.0
aF102.0
aF220.0
aF183.0
aaaa(lp151
(lp152
S'000314'
p153
ag4
ag5
aF199.7
aF140.5
aF311.7
aF252.5
aa(lp154
(lp155
F212.0
aF178.0
aF298.0
aF293.0
aa(lp156
F199.0
aF124.0
aF226.0
aF142.0
aa(lp157
F256.0
aF142.0
aF292.0
aF199.0
aa(lp158
F273.0
aF126.0
aF293.0
aF149.0
aa(lp159
F288.0
aF132.0
aF315.0
aF202.0
aa(lp160
F194.0
aF135.0
aF245.0
aF206.0
aa(lp161
F181.0
aF128.0
aF200.0
aF200.0
aaaa(lp162
(lp163
S'005623'
p164
ag4
ag5
aF34.8
aF14.9
aF187.8
aF268.9
aa(lp165
(lp166
F378.0
aF1.0
aF496.0
aF119.0
aaaa(lp167
(lp168
S'008922'
p169
ag4
ag5
aF255.0
aF154.5
aF321.8
aF218.1
aa(lp170
(lp171
F2.0
aF206.0
aF87.0
aF375.0
aa(lp172
F254.0
aF156.0
aF373.0
aF232.0
aa(lp173
F224.0
aF230.0
aF437.0
aF375.0
aaaa(lp174
(lp175
S'009317'
p176
ag4
ag5
aF87.8
aF205.9
aF155.3
aF337.3
aa(lp177
aa(lp178
(lp179
S'008407'
p180
ag4
ag5
aF421.7
aF205.3
aF492.7
aF322.4
aa(lp181
(lp182
F350.0
aF255.0
aF489.0
aF375.0
aa(lp183
F349.0
aF210.0
aF436.0
aF317.0
aa(lp184
F470.0
aF194.0
aF500.0
aF251.0
aaaa(lp185
(lp186
S'005734'
p187
ag4
ag5
aF325.2
aF275.9
aF446.0
aF375.0
aa(lp188
(lp189
F1.0
aF170.0
aF43.0
aF276.0
aa(lp190
F52.0
aF184.0
aF134.0
aF306.0
aa(lp191
F224.0
aF206.0
aF330.0
aF312.0
aa(lp192
F197.0
aF238.0
aF334.0
aF374.0
aa(lp193
F436.0
aF308.0
aF500.0
aF375.0
aaaa(lp194
(lp195
S'005807'
p196
ag4
ag5
aF420.7
aF180.1
aF471.5
aF276.8
aa(lp197
aa(lp198
(lp199
S'006516'
p200
ag4
ag5
aF343.8
aF211.5
aF498.1
aF374.8
aa(lp201
aa(lp202
(lp203
S'005362'
p204
ag4
ag5
aF128.7
aF218.1
aF226.3
aF300.8
aa(lp205
(lp206
F180.0
aF230.0
aF226.0
aF289.0
aa(lp207
F133.0
aF227.0
aF179.0
aF291.0
aa(lp208
F84.0
aF226.0
aF135.0
aF283.0
aa(lp209
F276.0
aF230.0
aF315.0
aF291.0
aa(lp210
F328.0
aF230.0
aF347.0
aF281.0
aa(lp211
F30.0
aF227.0
aF61.0
aF274.0
aa(lp212
F8.0
aF225.0
aF32.0
aF249.0
aaaa(lp213
(lp214
S'001600'
p215
ag4
ag5
aF442.2
aF239.5
aF500.0
aF342.2
aa(lp216
(lp217
F167.0
aF298.0
aF265.0
aF375.0
aa(lp218
F265.0
aF322.0
aF408.0
aF375.0
aaaa(lp219
(lp220
S'000366'
p221
ag4
ag5
aF10.3
aF183.6
aF57.8
aF273.7
aa(lp222
(lp223
F16.0
aF185.0
aF115.0
aF411.0
aa(lp224
F242.0
aF206.0
aF371.0
aF431.0
aaaa(lp225
(lp226
S'009435'
p227
ag4
ag5
aF5.1
aF190.7
aF88.8
aF323.8
aa(lp228
(lp229
F376.0
aF141.0
aF500.0
aF294.0
aaaa(lp230
(lp231
S'009367'
p232
ag4
ag5
aF67.9
aF235.6
aF108.6
aF294.5
aa(lp233
aa(lp234
(lp235
S'003595'
p236
ag4
ag5
aF169.7
aF115.3
aF237.2
aF206.6
aa(lp237
aa(lp238
(lp239
S'001163'
p240
ag4
ag5
aF42.8
aF171.3
aF251.0
aF374.9
aa(lp241
(lp242
F351.0
aF180.0
aF500.0
aF358.0
aa(lp243
F51.0
aF129.0
aF104.0
aF172.0
aa(lp244
F118.0
aF123.0
aF165.0
aF163.0
aa(lp245
F114.0
aF135.0
aF177.0
aF204.0
aa(lp246
F192.0
aF156.0
aF235.0
aF192.0
aa(lp247
F2.0
aF144.0
aF76.0
aF288.0
aaaa(lp248
(lp249
S'000615'
p250
ag4
ag5
aF259.6
aF141.4
aF328.3
aF327.5
aa(lp251
aa(lp252
(lp253
S'000547'
p254
ag4
ag5
aF4.5
aF401.6
aF67.2
aF500.0
aa(lp255
(lp256
F313.0
aF294.0
aF360.0
aF373.0
aa(lp257
F163.0
aF303.0
aF216.0
aF353.0
aa(lp258
F230.0
aF298.0
aF285.0
aF346.0
aa(lp259
F158.0
aF252.0
aF201.0
aF312.0
aa(lp260
F307.0
aF218.0
aF340.0
aF286.0
aa(lp261
F341.0
aF246.0
aF373.0
aF302.0
aa(lp262
F259.0
aF387.0
aF308.0
aF475.0
aa(lp263
F207.0
aF438.0
aF260.0
aF495.0
aa(lp264
F147.0
aF398.0
aF201.0
aF473.0
aa(lp265
F160.0
aF339.0
aF208.0
aF410.0
aa(lp266
F301.0
aF171.0
aF336.0
aF223.0
aa(lp267
F48.0
aF297.0
aF91.0
aF369.0
aa(lp268
F22.0
aF418.0
aF80.0
aF495.0
aaaa(lp269
(lp270
S'008830'
p271
ag4
ag5
aF256.2
aF22.9
aF381.7
aF262.7
aa(lp272
aa(lp273
(lp274
S'005545'
p275
ag4
ag5
aF15.1
aF167.8
aF89.7
aF441.5
aa(lp276
(lp277
F46.0
aF247.0
aF83.0
aF396.0
aaaa(lp278
(lp279
S'000595'
p280
ag4
ag5
aF153.7
aF179.6
aF280.3
aF372.0
aa(lp281
(lp282
F367.0
aF167.0
aF434.0
aF223.0
aa(lp283
F299.0
aF153.0
aF348.0
aF199.0
aa(lp284
F162.0
aF150.0
aF220.0
aF187.0
aa(lp285
F147.0
aF180.0
aF218.0
aF354.0
aa(lp286
F203.0
aF211.0
aF336.0
aF374.0
aa(lp287
F369.0
aF227.0
aF500.0
aF375.0
aaaa(lp288
(lp289
S'000938'
p290
ag4
ag5
aF298.9
aF221.8
aF333.7
aF307.0
aa(lp291
(lp292
F319.0
aF184.0
aF434.0
aF318.0
aa(lp293
F213.0
aF170.0
aF281.0
aF241.0
aaaa(lp294
(lp295
S'001163'
p296
ag4
ag5
aF55.6
aF140.9
aF129.1
aF215.3
aa(lp297
(lp298
F351.0
aF180.0
aF500.0
aF358.0
aa(lp299
F51.0
aF129.0
aF104.0
aF172.0
aa(lp300
F118.0
aF123.0
aF165.0
aF163.0
aa(lp301
F114.0
aF135.0
aF177.0
aF204.0
aa(lp302
F192.0
aF156.0
aF235.0
aF192.0
aa(lp303
F2.0
aF144.0
aF76.0
aF288.0
aaaa(lp304
(lp305
S'006307'
p306
ag4
ag5
aF316.5
aF71.5
aF432.2
aF181.8
aa(lp307
(lp308
F150.0
aF105.0
aF288.0
aF173.0
aaaa(lp309
(lp310
S'003723'
p311
ag4
ag5
aF428.4
aF198.2
aF490.9
aF278.5
aa(lp312
aa(lp313
(lp314
S'001407'
p315
ag4
ag5
aF42.5
aF287.4
aF183.6
aF372.4
aa(lp316
(lp317
F425.0
aF273.0
aF500.0
aF374.0
aa(lp318
F65.0
aF322.0
aF175.0
aF374.0
aa(lp319
F110.0
aF288.0
aF176.0
aF335.0
aa(lp320
F40.0
aF255.0
aF104.0
aF371.0
aa(lp321
F32.0
aF246.0
aF97.0
aF340.0
aa(lp322
F14.0
aF223.0
aF65.0
aF313.0
aa(lp323
F1.0
aF223.0
aF17.0
aF291.0
aaaa(lp324
(lp325
S'003624'
p326
ag4
ag5
aF133.7
aF261.6
aF249.8
aF374.6
aa(lp327
aa(lp328
(lp329
S'000287'
p330
ag4
ag5
aF303.7
aF155.3
aF465.8
aF375.0
aa(lp331
aa(lp332
(lp333
S'000385'
p334
ag4
ag5
aF8.5
aF136.8
aF118.5
aF364.6
aa(lp335
(lp336
F154.0
aF194.0
aF281.0
aF372.0
aa(lp337
F373.0
aF173.0
aF500.0
aF322.0
aaaa(lp338
(lp339
S'001319'
p340
ag4
ag5
aF70.8
aF200.7
aF132.3
aF369.9
aa(lp341
(lp342
F68.0
aF204.0
aF254.0
aF375.0
aaaa(lp343
(lp344
S'002035'
p345
ag4
ag5
aF323.7
aF113.5
aF388.5
aF229.6
aa(lp346
aa(lp347
(lp348
S'002777'
p349
ag4
ag5
aF93.5
aF228.1
aF180.9
aF348.6
aa(lp350
(lp351
F270.0
aF194.0
aF318.0
aF273.0
aa(lp352
F321.0
aF216.0
aF500.0
aF375.0
aa(lp353
F237.0
aF195.0
aF275.0
aF262.0
aa(lp354
F210.0
aF196.0
aF244.0
aF260.0
aa(lp355
F143.0
aF220.0
aF214.0
aF301.0
aa(lp356
F206.0
aF223.0
aF284.0
aF330.0
aaaa(lp357
(lp358
S'002792'
p359
ag4
ag5
aF210.2
aF155.7
aF349.8
aF373.3
aa(lp360
(lp361
F219.0
aF254.0
aF305.0
aF374.0
aaaa(lp362
(lp363
S'008671'
p364
ag4
ag5
aF248.1
aF147.8
aF311.2
aF214.3
aa(lp365
(lp366
F362.0
aF142.0
aF487.0
aF258.0
aa(lp367
F58.0
aF101.0
aF149.0
aF200.0
aa(lp368
F1.0
aF236.0
aF115.0
aF375.0
aaaa(lp369
(lp370
S'007471'
p371
ag4
ag5
aF1.0
aF302.2
aF151.6
aF500.0
aa(lp372
aa(lp373
(lp374
S'005623'
p375
ag4
ag5
aF87.5
aF11.1
aF406.3
aF367.3
aa(lp376
(lp377
F378.0
aF1.0
aF496.0
aF119.0
aaaa(lp378
(lp379
S'005551'
p380
ag4
ag5
aF1.0
aF270.4
aF83.8
aF375.0
aa(lp381
aa(lp382
(lp383
S'004385'
p384
ag4
ag5
aF3.3
aF23.2
aF320.9
aF363.2
aa(lp385
aa(lp386
(lp387
S'001585'
p388
ag4
ag5
aF296.3
aF180.6
aF411.3
aF333.9
aa(lp389
aa(lp390
(lp391
S'007567'
p392
ag4
ag5
aF415.2
aF156.7
aF466.6
aF264.2
aa(lp393
(lp394
F292.0
aF119.0
aF403.0
aF298.0
aa(lp395
F419.0
aF189.0
aF500.0
aF375.0
aa(lp396
F121.0
aF118.0
aF196.0
aF258.0
aaaa(lp397
(lp398
S'002788'
p399
ag4
ag5
aF22.8
aF147.6
aF178.7
aF328.9
aa(lp400
(lp401
F133.0
aF194.0
aF215.0
aF300.0
aa(lp402
F192.0
aF167.0
aF259.0
aF278.0
aa(lp403
F30.0
aF183.0
aF135.0
aF298.0
aa(lp404
F8.0
aF163.0
aF95.0
aF269.0
aa(lp405
F2.0
aF135.0
aF57.0
aF194.0
aa(lp406
F59.0
aF132.0
aF102.0
aF152.0
aa(lp407
F111.0
aF111.0
aF129.0
aF127.0
aa(lp408
F209.0
aF138.0
aF242.0
aF159.0
aaaa(lp409
(lp410
S'001519'
p411
ag4
ag5
aF44.3
aF101.9
aF150.4
aF398.1
aa(lp412
(lp413
F33.0
aF246.0
aF132.0
aF348.0
aaaa(lp414
(lp415
S'000490'
p416
ag4
ag5
aF14.5
aF174.6
aF124.4
aF288.5
aa(lp417
aa(lp418
(lp419
S'003049'
p420
ag4
ag5
aF145.0
aF199.2
aF256.0
aF372.3
aa(lp421
(lp422
F249.0
aF241.0
aF361.0
aF375.0
aa(lp423
F171.0
aF251.0
aF304.0
aF375.0
aa(lp424
F55.0
aF227.0
aF160.0
aF354.0
aa(lp425
F125.0
aF212.0
aF181.0
aF238.0
aa(lp426
F43.0
aF220.0
aF125.0
aF301.0
aa(lp427
F2.0
aF199.0
aF63.0
aF269.0
aaaa(lp428
(lp429
S'004717'
p430
ag4
ag5
aF9.5
aF371.3
aF134.8
aF495.1
aa(lp431
(lp432
F1.0
aF398.0
aF313.0
aF500.0
aaaa(lp433
(lp434
S'003581'
p435
ag4
ag5
aF295.8
aF19.9
aF362.0
aF74.1
aa(lp436
aa(lp437
(lp438
S'006826'
p439
ag4
ag5
aF4.9
aF187.2
aF161.0
aF375.0
aa(lp440
(lp441
F114.0
aF148.0
aF171.0
aF326.0
aa(lp442
F57.0
aF146.0
aF111.0
aF175.0
aa(lp443
F228.0
aF143.0
aF288.0
aF252.0
aa(lp444
F194.0
aF138.0
aF259.0
aF240.0
aa(lp445
F297.0
aF196.0
aF500.0
aF375.0
aaaa(lp446
(lp447
S'000385'
p448
ag4
ag5
aF212.4
aF191.7
aF289.5
aF327.9
aa(lp449
(lp450
F154.0
aF194.0
aF281.0
aF372.0
aa(lp451
F373.0
aF173.0
aF500.0
aF322.0
aaaa(lp452
(lp453
S'005941'
p454
ag4
ag5
aF241.8
aF238.8
aF329.9
aF341.2
aa(lp455
(lp456
F247.0
aF196.0
aF354.0
aF351.0
aa(lp457
F152.0
aF224.0
aF260.0
aF375.0
aa(lp458
F1.0
aF263.0
aF86.0
aF375.0
aa(lp459
F115.0
aF203.0
aF178.0
aF238.0
aaaa(lp460
(lp461
S'000272'
p462
ag4
ag5
aF273.7
aF383.5
aF332.0
aF490.7
aa(lp463
aa(lp464
(lp465
S'002119'
p466
ag4
ag5
aF464.2
aF179.7
aF500.0
aF255.7
aa(lp467
aa(lp468
(lp469
S'000299'
p470
ag4
ag5
aF190.6
aF233.4
aF334.8
aF368.1
aa(lp471
(lp472
F179.0
aF248.0
aF280.0
aF323.0
aaaa(lp473
(lp474
S'008486'
p475
ag4
ag5
aF8.6
aF322.0
aF130.1
aF480.9
aa(lp476
(lp477
F169.0
aF241.0
aF296.0
aF438.0
aaaa(lp478
(lp479
S'000749'
p480
ag4
ag5
aF202.1
aF51.2
aF306.2
aF118.6
aa(lp481
(lp482
F123.0
aF60.0
aF304.0
aF238.0
aa(lp483
F244.0
aF61.0
aF452.0
aF374.0
aa(lp484
F56.0
aF104.0
aF369.0
aF375.0
aa(lp485
F1.0
aF104.0
aF203.0
aF375.0
aaaa(lp486
(lp487
S'001302'
p488
ag4
ag5
aF358.3
aF165.7
aF491.0
aF375.0
aa(lp489
(lp490
F262.0
aF96.0
aF337.0
aF167.0
aa(lp491
F164.0
aF96.0
aF238.0
aF161.0
aa(lp492
F186.0
aF228.0
aF359.0
aF373.0
aa(lp493
F2.0
aF216.0
aF202.0
aF374.0
aaaa(lp494
(lp495
S'007196'
p496
ag4
ag5
aF374.7
aF265.9
aF500.0
aF368.6
aa(lp497
aa(lp498
(lp499
S'008056'
p500
ag4
ag5
aF202.7
aF163.1
aF273.0
aF203.0
aa(lp501
(lp502
F206.0
aF161.0
aF240.0
aF200.0
aa(lp503
F235.0
aF160.0
aF268.0
aF201.0
aaaa(lp504
(lp505
S'005734'
p506
ag4
ag5
aF402.6
aF269.1
aF498.8
aF375.0
aa(lp507
(lp508
F1.0
aF170.0
aF43.0
aF276.0
aa(lp509
F52.0
aF184.0
aF134.0
aF306.0
aa(lp510
F224.0
aF206.0
aF330.0
aF312.0
aa(lp511
F197.0
aF238.0
aF334.0
aF374.0
aa(lp512
F436.0
aF308.0
aF500.0
aF375.0
aaaa(lp513
(lp514
S'004045'
p515
ag4
ag5
aF22.7
aF85.6
aF228.6
aF233.0
aa(lp516
(lp517
F1.0
aF96.0
aF22.0
aF238.0
aaaa(lp518
(lp519
S'003676'
p520
ag4
ag5
aF2.1
aF193.9
aF56.4
aF278.6
aa(lp521
(lp522
F43.0
aF177.0
aF150.0
aF294.0
aaaa(lp523
(lp524
S'009788'
p525
ag4
ag5
aF450.7
aF118.1
aF498.3
aF216.1
aa(lp526
aa(lp527
(lp528
S'005533'
p529
ag4
ag5
aF223.2
aF370.5
aF332.0
aF500.0
aa(lp530
aa(lp531
(lp532
S'000658'
p533
ag4
ag5
aF192.2
aF290.6
aF280.0
aF375.0
aa(lp534
aa(lp535
(lp536
S'000658'
p537
ag4
ag5
aF6.0
aF227.4
aF54.8
aF335.0
aa(lp538
aa(lp539
(lp540
S'009521'
p541
ag4
ag5
aF1.0
aF260.5
aF167.1
aF375.0
aa(lp542
(lp543
F399.0
aF250.0
aF460.0
aF304.0
aa(lp544
F412.0
aF305.0
aF500.0
aF375.0
aaaa(lp545
(lp546
S'007643'
p547
ag4
ag5
aF1.0
aF132.6
aF349.3
aF500.0
aa(lp548
aa(lp549
(lp550
S'006831'
p551
ag4
ag5
aF405.0
aF40.4
aF500.0
aF138.3
aa(lp552
aa(lp553
(lp554
S'003113'
p555
ag4
ag5
aF17.8
aF66.6
aF69.4
aF133.1
aa(lp556
aa(lp557
(lp558
S'000126'
p559
ag4
ag5
aF218.3
aF161.4
aF265.7
aF204.7
aa(lp560
(lp561
F373.0
aF171.0
aF433.0
aF214.0
aa(lp562
F351.0
aF165.0
aF373.0
aF211.0
aa(lp563
F388.0
aF156.0
aF418.0
aF175.0
aa(lp564
F316.0
aF165.0
aF356.0
aF213.0
aa(lp565
F295.0
aF157.0
aF310.0
aF164.0
aa(lp566
F281.0
aF158.0
aF309.0
aF206.0
aa(lp567
F274.0
aF158.0
aF282.0
aF171.0
aa(lp568
F259.0
aF172.0
aF291.0
aF214.0
aa(lp569
F235.0
aF164.0
aF260.0
aF186.0
aa(lp570
F252.0
aF159.0
aF266.0
aF169.0
aa(lp571
F174.0
aF163.0
aF208.0
aF180.0
aa(lp572
F117.0
aF179.0
aF179.0
aF213.0
aa(lp573
F97.0
aF165.0
aF129.0
aF189.0
aa(lp574
F123.0
aF164.0
aF134.0
aF174.0
aa(lp575
F85.0
aF161.0
aF94.0
aF189.0
aa(lp576
F53.0
aF162.0
aF79.0
aF211.0
aaaa(lp577
(lp578
S'008957'
p579
ag4
ag5
aF32.5
aF106.1
aF84.6
aF260.5
aa(lp580
(lp581
F1.0
aF117.0
aF42.0
aF267.0
aa(lp582
F116.0
aF68.0
aF308.0
aF375.0
aaaa(lp583
(lp584
S'000547'
p585
ag4
ag5
aF154.4
aF366.0
aF214.2
aF499.5
aa(lp586
(lp587
F313.0
aF294.0
aF360.0
aF373.0
aa(lp588
F163.0
aF303.0
aF216.0
aF353.0
aa(lp589
F230.0
aF298.0
aF285.0
aF346.0
aa(lp590
F158.0
aF252.0
aF201.0
aF312.0
aa(lp591
F307.0
aF218.0
aF340.0
aF286.0
aa(lp592
F341.0
aF246.0
aF373.0
aF302.0
aa(lp593
F259.0
aF387.0
aF308.0
aF475.0
aa(lp594
F207.0
aF438.0
aF260.0
aF495.0
aa(lp595
F147.0
aF398.0
aF201.0
aF473.0
aa(lp596
F160.0
aF339.0
aF208.0
aF410.0
aa(lp597
F301.0
aF171.0
aF336.0
aF223.0
aa(lp598
F48.0
aF297.0
aF91.0
aF369.0
aa(lp599
F22.0
aF418.0
aF80.0
aF495.0
aaaa(lp600
(lp601
S'005804'
p602
ag4
ag5
aF2.4
aF249.1
aF92.3
aF347.6
aa(lp603
aa(lp604
(lp605
S'005753'
p606
ag4
ag5
aF309.0
aF195.3
aF383.5
aF275.8
aa(lp607
aa(lp608
(lp609
S'008600'
p610
ag4
ag5
aF237.1
aF14.6
aF482.7
aF326.6
aa(lp611
(lp612
F2.0
aF2.0
aF500.0
aF335.0
aaaa(lp613
(lp614
S'009715'
p615
ag4
ag5
aF421.8
aF239.1
aF495.1
aF372.6
aa(lp616
aa(lp617
(lp618
S'006826'
p619
ag4
ag5
aF131.8
aF172.1
aF166.7
aF280.3
aa(lp620
(lp621
F114.0
aF148.0
aF171.0
aF326.0
aa(lp622
F57.0
aF146.0
aF111.0
aF175.0
aa(lp623
F228.0
aF143.0
aF288.0
aF252.0
aa(lp624
F194.0
aF138.0
aF259.0
aF240.0
aa(lp625
F297.0
aF196.0
aF500.0
aF375.0
aaaa(lp626
(lp627
S'005665'
p628
ag4
ag5
aF53.1
aF80.1
aF158.6
aF285.5
aa(lp629
(lp630
F235.0
aF192.0
aF317.0
aF305.0
aa(lp631
F75.0
aF152.0
aF169.0
aF268.0
aa(lp632
F42.0
aF99.0
aF112.0
aF198.0
aa(lp633
F96.0
aF65.0
aF158.0
aF147.0
aa(lp634
F206.0
aF55.0
aF251.0
aF130.0
aa(lp635
F377.0
aF163.0
aF479.0
aF277.0
aa(lp636
F409.0
aF109.0
aF486.0
aF203.0
aa(lp637
F376.0
aF30.0
aF412.0
aF89.0
aa(lp638
F334.0
aF29.0
aF371.0
aF82.0
aa(lp639
F288.0
aF41.0
aF325.0
aF97.0
aa(lp640
F429.0
aF33.0
aF484.0
aF96.0
aa(lp641
F234.0
aF29.0
aF273.0
aF77.0
aa(lp642
F252.0
aF36.0
aF289.0
aF95.0
aa(lp643
F323.0
aF68.0
aF382.0
aF147.0
aaaa(lp644
(lp645
S'003888'
p646
ag4
ag5
aF1.7
aF25.7
aF165.3
aF357.0
aa(lp647
aa(lp648
(lp649
S'004810'
p650
ag4
ag5
aF450.3
aF230.2
aF480.0
aF289.3
aa(lp651
aa(lp652
(lp653
S'005302'
p654
ag4
ag5
aF112.6
aF183.5
aF215.9
aF240.7
aa(lp655
(lp656
F111.0
aF193.0
aF137.0
aF243.0
aa(lp657
F142.0
aF191.0
aF166.0
aF240.0
aa(lp658
F170.0
aF190.0
aF187.0
aF244.0
aa(lp659
F187.0
aF191.0
aF214.0
aF237.0
aa(lp660
F86.0
aF187.0
aF114.0
aF232.0
aa(lp661
F115.0
aF178.0
aF135.0
aF196.0
aa(lp662
F99.0
aF183.0
aF111.0
aF199.0
aa(lp663
F140.0
aF182.0
aF156.0
aF198.0
aa(lp664
F163.0
aF179.0
aF178.0
aF203.0
aa(lp665
F195.0
aF185.0
aF207.0
aF201.0
aa(lp666
F243.0
aF179.0
aF259.0
aF218.0
aa(lp667
F259.0
aF184.0
aF268.0
aF224.0
aa(lp668
F270.0
aF187.0
aF281.0
aF224.0
aaaa(lp669
(lp670
S'008614'
p671
ag4
ag5
aF359.5
aF27.7
aF453.5
aF272.8
aa(lp672
aa(lp673
(lp674
S'008887'
p675
ag4
ag5
aF4.8
aF163.0
aF138.5
aF373.9
aa(lp676
(lp677
F136.0
aF225.0
aF288.0
aF372.0
aaaa(lp678
(lp679
S'009217'
p680
ag4
ag5
aF405.6
aF169.1
aF483.7
aF230.9
aa(lp681
aa(lp682
(lp683
S'001081'
p684
ag4
ag5
aF1.0
aF184.1
aF102.5
aF372.1
aa(lp685
(lp686
F147.0
aF176.0
aF283.0
aF375.0
aaaa(lp687
(lp688
S'003862'
p689
ag4
ag5
aF131.6
aF166.9
aF262.8
aF321.8
aa(lp690
aa(lp691
(lp692
S'005498'
p693
ag4
ag5
aF245.7
aF181.3
aF374.2
aF258.1
aa(lp694
(lp695
F415.0
aF169.0
aF500.0
aF303.0
aa(lp696
F2.0
aF245.0
aF189.0
aF375.0
aaaa(lp697
(lp698
S'006200'
p699
ag4
ag5
aF188.5
aF220.9
aF221.9
aF266.0
aa(lp700
aa(lp701
(lp702
S'001990'
p703
ag4
ag5
aF199.4
aF122.2
aF283.7
aF219.6
aa(lp704
(lp705
F470.0
aF62.0
aF500.0
aF81.0
aa(lp706
F425.0
aF78.0
aF500.0
aF198.0
aa(lp707
F365.0
aF64.0
aF446.0
aF180.0
aa(lp708
F204.0
aF151.0
aF352.0
aF365.0
aa(lp709
F160.0
aF124.0
aF287.0
aF322.0
aa(lp710
F1.0
aF129.0
aF119.0
aF350.0
aa(lp711
F1.0
aF234.0
aF119.0
aF375.0
aaaa(lp712
(lp713
S'002414'
p714
ag4
ag5
aF68.4
aF252.5
aF92.3
aF299.9
aa(lp715
(lp716
F340.0
aF312.0
aF500.0
aF375.0
aa(lp717
F22.0
aF322.0
aF267.0
aF375.0
aaaa(lp718
(lp719
S'001189'
p720
ag4
ag5
aF262.4
aF250.0
aF320.4
aF308.7
aa(lp721
(lp722
F252.0
aF262.0
aF342.0
aF420.0
aa(lp723
F259.0
aF252.0
aF324.0
aF388.0
aa(lp724
F247.0
aF248.0
aF298.0
aF356.0
aa(lp725
F143.0
aF274.0
aF246.0
aF465.0
aa(lp726
F168.0
aF242.0
aF211.0
aF268.0
aa(lp727
F83.0
aF246.0
aF121.0
aF284.0
aa(lp728
F60.0
aF249.0
aF126.0
aF325.0
aa(lp729
F44.0
aF258.0
aF129.0
aF415.0
aaaa(lp730
(lp731
S'007420'
p732
ag4
ag5
aF40.6
aF36.3
aF297.9
aF333.0
aa(lp733
aa(lp734
(lp735
S'008321'
p736
ag4
ag5
aF15.4
aF235.4
aF226.1
aF492.4
aa(lp737
aa(lp738
(lp739
S'005362'
p740
ag4
ag5
aF31.2
aF228.8
aF114.8
aF320.5
aa(lp741
(lp742
F180.0
aF230.0
aF226.0
aF289.0
aa(lp743
F133.0
aF227.0
aF179.0
aF291.0
aa(lp744
F84.0
aF226.0
aF135.0
aF283.0
aa(lp745
F276.0
aF230.0
aF315.0
aF291.0
aa(lp746
F328.0
aF230.0
aF347.0
aF281.0
aa(lp747
F30.0
aF227.0
aF61.0
aF274.0
aa(lp748
F8.0
aF225.0
aF32.0
aF249.0
aaaa(lp749
(lp750
S'008210'
p751
ag4
ag5
aF197.1
aF243.2
aF319.7
aF375.0
aa(lp752
(lp753
F270.0
aF244.0
aF335.0
aF326.0
aa(lp754
F228.0
aF322.0
aF320.0
aF375.0
aa(lp755
F170.0
aF227.0
aF220.0
aF261.0
aa(lp756
F1.0
aF236.0
aF35.0
aF270.0
aaaa(lp757
(lp758
S'003839'
p759
ag4
ag5
aF43.3
aF199.0
aF72.2
aF273.2
aa(lp760
aa(lp761
(lp762
S'007937'
p763
ag4
ag5
aF22.9
aF236.6
aF192.3
aF375.0
aa(lp764
aa(lp765
(lp766
S'001302'
p767
ag4
ag5
aF254.9
aF139.5
aF426.7
aF368.4
aa(lp768
(lp769
F262.0
aF96.0
aF337.0
aF167.0
aa(lp770
F164.0
aF96.0
aF238.0
aF161.0
aa(lp771
F186.0
aF228.0
aF359.0
aF373.0
aa(lp772
F2.0
aF216.0
aF202.0
aF374.0
aaaa(lp773
(lp774
S'006546'
p775
ag4
ag5
aF8.4
aF243.9
aF119.0
aF373.6
aa(lp776
(lp777
F448.0
aF255.0
aF500.0
aF375.0
aa(lp778
F1.0
aF253.0
aF66.0
aF375.0
aa(lp779
F115.0
aF168.0
aF146.0
aF219.0
aa(lp780
F131.0
aF150.0
aF157.0
aF199.0
aa(lp781
F306.0
aF107.0
aF342.0
aF153.0
aa(lp782
F226.0
aF112.0
aF271.0
aF146.0
aa(lp783
F86.0
aF160.0
aF103.0
aF212.0
aaaa(lp784
(lp785
S'006313'
p786
ag4
ag5
aF364.9
aF185.6
aF467.8
aF277.2
aa(lp787
aa(lp788
(lp789
S'001197'
p790
ag4
ag5
aF37.6
aF48.3
aF264.1
aF193.5
aa(lp791
aa(lp792
(lp793
S'006504'
p794
ag4
ag5
aF12.4
aF147.7
aF211.5
aF488.4
aa(lp795
aa(lp796
(lp797
S'002930'
p798
ag4
ag5
aF329.9
aF108.7
aF358.7
aF156.3
aa(lp799
(lp800
F103.0
aF176.0
aF185.0
aF307.0
aa(lp801
F181.0
aF166.0
aF248.0
aF303.0
aa(lp802
F321.0
aF176.0
aF417.0
aF310.0
aa(lp803
F255.0
aF107.0
aF341.0
aF205.0
aa(lp804
F346.0
aF125.0
aF389.0
aF169.0
aa(lp805
F130.0
aF130.0
aF203.0
aF184.0
aa(lp806
F238.0
aF168.0
aF322.0
aF306.0
aa(lp807
F319.0
aF159.0
aF387.0
aF280.0
aaaa(lp808
(lp809
S'004319'
p810
ag4
ag5
aF4.3
aF117.1
aF94.3
aF216.4
aa(lp811
(lp812
F133.0
aF98.0
aF234.0
aF178.0
aa(lp813
F1.0
aF117.0
aF52.0
aF205.0
aa(lp814
F162.0
aF191.0
aF475.0
aF375.0
aaaa(lp815
(lp816
S'008767'
p817
ag4
ag5
aF145.0
aF111.0
aF476.0
aF366.5
aa(lp818
aa(lp819
(lp820
S'003212'
p821
ag4
ag5
aF304.7
aF97.1
aF484.1
aF301.4
aa(lp822
aa(lp823
(lp824
S'002644'
p825
ag4
ag5
aF203.6
aF178.1
aF261.5
aF337.2
aa(lp826
(lp827
F148.0
aF197.0
aF267.0
aF346.0
aaaa(lp828
(lp829
S'005661'
p830
ag4
ag5
aF410.7
aF194.6
aF472.8
aF315.5
aa(lp831
(lp832
F159.0
aF248.0
aF270.0
aF375.0
aa(lp833
F12.0
aF250.0
aF150.0
aF375.0
aa(lp834
F117.0
aF185.0
aF184.0
aF207.0
aa(lp835
F200.0
aF187.0
aF266.0
aF209.0
aa(lp836
F277.0
aF124.0
aF302.0
aF162.0
aaaa(lp837
(lp838
S'005221'
p839
ag4
ag5
aF313.8
aF100.8
aF497.6
aF277.5
aa(lp840
aa(lp841
(lp842
S'007531'
p843
ag4
ag5
aF198.7
aF154.6
aF464.3
aF375.0
aa(lp844
aa(lp845
(lp846
S'007904'
p847
ag4
ag5
aF405.7
aF189.3
aF470.7
aF326.7
aa(lp848
aa(lp849
(lp850
S'004250'
p851
ag4
ag5
aF6.8
aF98.0
aF59.1
aF162.5
aa(lp852
(lp853
F138.0
aF105.0
aF164.0
aF139.0
aa(lp854
F125.0
aF111.0
aF158.0
aF150.0
aa(lp855
F117.0
aF117.0
aF153.0
aF162.0
aa(lp856
F102.0
aF129.0
aF146.0
aF197.0
aa(lp857
F79.0
aF149.0
aF137.0
aF221.0
aa(lp858
F61.0
aF162.0
aF128.0
aF284.0
aa(lp859
F4.0
aF206.0
aF93.0
aF405.0
aa(lp860
F3.0
aF409.0
aF56.0
aF479.0
aa(lp861
F111.0
aF99.0
aF137.0
aF126.0
aaaa(lp862
(lp863
S'007801'
p864
ag4
ag5
aF63.5
aF200.3
aF246.2
aF375.0
aa(lp865
aa(lp866
(lp867
S'007201'
p868
ag4
ag5
aF1.0
aF185.4
aF89.5
aF332.2
aa(lp869
aa(lp870
(lp871
S'009353'
p872
ag4
ag5
aF272.5
aF119.0
aF342.3
aF199.6
aa(lp873
aa(lp874
(lp875
S'002122'
p876
ag4
ag5
aF2.6
aF106.3
aF51.4
aF210.2
aa(lp877
aa(lp878
(lp879
S'007862'
p880
ag4
ag5
aF344.1
aF101.1
aF494.4
aF363.8
aa(lp881
aa(lp882
(lp883
S'005255'
p884
ag4
ag5
aF399.5
aF184.1
aF496.8
aF322.8
aa(lp885
aa(lp886
(lp887
S'004506'
p888
ag4
ag5
aF4.4
aF154.0
aF150.8
aF342.1
aa(lp889
(lp890
F90.0
aF82.0
aF330.0
aF470.0
aaaa(lp891
(lp892
S'001020'
p893
ag4
ag5
aF197.2
aF261.9
aF375.0
aF489.8
aa(lp894
aa(lp895
(lp896
S'005019'
p897
ag4
ag5
aF1.0
aF226.5
aF136.3
aF338.9
aa(lp898
aa(lp899
(lp900
S'000429'
p901
ag4
ag5
aF1.9
aF278.0
aF90.9
aF375.0
aa(lp902
aa(lp903
(lp904
S'004166'
p905
ag4
ag5
aF1.0
aF245.5
aF99.3
aF332.0
aa(lp906
(lp907
F485.0
aF189.0
aF500.0
aF222.0
aa(lp908
F358.0
aF195.0
aF398.0
aF239.0
aa(lp909
F300.0
aF205.0
aF355.0
aF254.0
aa(lp910
F265.0
aF278.0
aF374.0
aF332.0
aaaa(lp911
(lp912
S'000933'
p913
ag4
ag5
aF96.2
aF142.2
aF342.5
aF494.2
aa(lp914
aa(lp915
(lp916
S'008721'
p917
ag4
ag5
aF311.7
aF190.3
aF475.0
aF375.0
aa(lp918
aa(lp919
(lp920
S'006461'
p921
ag4
ag5
aF382.4
aF224.6
aF500.0
aF333.0
aa(lp922
(lp923
F57.0
aF195.0
aF114.0
aF257.0
aa(lp924
F25.0
aF202.0
aF55.0
aF310.0
aa(lp925
F46.0
aF205.0
aF125.0
aF324.0
aa(lp926
F157.0
aF197.0
aF181.0
aF233.0
aa(lp927
F181.0
aF202.0
aF213.0
aF234.0
aa(lp928
F127.0
aF209.0
aF210.0
aF327.0
aaaa(lp929
(lp930
S'007561'
p931
ag4
ag5
aF52.6
aF63.8
aF210.7
aF176.0
aa(lp932
aa(lp933
(lp934
S'004260'
p935
ag4
ag5
aF1.0
aF58.9
aF116.5
aF281.0
aa(lp936
aa(lp937
(lp938
S'001297'
p939
ag4
ag5
aF59.0
aF187.7
aF350.1
aF500.0
aa(lp940
aa(lp941
(lp942
S'003297'
p943
ag4
ag5
aF164.5
aF199.2
aF351.2
aF497.5
aa(lp944
(lp945
F26.0
aF301.0
aF208.0
aF500.0
aa(lp946
F301.0
aF179.0
aF332.0
aF262.0
aa(lp947
F300.0
aF206.0
aF349.0
aF346.0
aa(lp948
F48.0
aF178.0
aF105.0
aF260.0
aa(lp949
F5.0
aF205.0
aF61.0
aF315.0
aaaa(lp950
(lp951
S'005941'
p952
ag4
ag5
aF304.0
aF210.6
aF342.0
aF344.3
aa(lp953
(lp954
F247.0
aF196.0
aF354.0
aF351.0
aa(lp955
F152.0
aF224.0
aF260.0
aF375.0
aa(lp956
F1.0
aF263.0
aF86.0
aF375.0
aa(lp957
F115.0
aF203.0
aF178.0
aF238.0
aaaa(lp958
(lp959
S'007722'
p960
ag4
ag5
aF288.5
aF227.5
aF327.8
aF324.5
aa(lp961
(lp962
F275.0
aF216.0
aF308.0
aF225.0
aa(lp963
F320.0
aF226.0
aF339.0
aF318.0
aa(lp964
F221.0
aF217.0
aF236.0
aF235.0
aa(lp965
F242.0
aF232.0
aF288.0
aF332.0
aa(lp966
F150.0
aF248.0
aF210.0
aF282.0
aa(lp967
F4.0
aF261.0
aF43.0
aF304.0
aa(lp968
F231.0
aF282.0
aF270.0
aF376.0
aa(lp969
F158.0
aF307.0
aF235.0
aF376.0
aaaa(lp970
(lp971
S'005656'
p972
ag4
ag5
aF273.2
aF145.4
aF428.9
aF332.6
aa(lp973
aa(lp974
(lp975
S'009225'
p976
ag4
ag5
aF295.2
aF191.7
aF410.8
aF362.0
aa(lp977
(lp978
F178.0
aF289.0
aF295.0
aF361.0
aa(lp979
F100.0
aF264.0
aF182.0
aF320.0
aa(lp980
F305.0
aF264.0
aF408.0
aF353.0
aaaa(lp981
(lp982
S'008627'
p983
ag4
ag5
aF15.4
aF58.0
aF113.2
aF373.8
aa(lp984
aa(lp985
(lp986
S'007264'
p987
ag4
ag5
aF222.3
aF241.8
aF476.4
aF373.8
aa(lp988
aa(lp989
(lp990
S'003543'
p991
ag4
ag5
aF3.9
aF201.9
aF161.9
aF374.0
aa(lp992
aa(lp993
(lp994
S'000397'
p995
ag4
ag5
aF291.7
aF195.4
aF340.3
aF270.3
aa(lp996
(lp997
F271.0
aF192.0
aF313.0
aF273.0
aa(lp998
F347.0
aF266.0
aF374.0
aF359.0
aa(lp999
F3.0
aF431.0
aF97.0
aF500.0
aaaa(lp1000
(lp1001
S'003617'
p1002
ag4
ag5
aF123.9
aF196.3
aF458.9
aF370.8
aa(lp1003
(lp1004
F21.0
aF172.0
aF139.0
aF375.0
aa(lp1005
F196.0
aF294.0
aF384.0
aF375.0
aaaa(lp1006
(lp1007
S'009280'
p1008
ag4
ag5
aF160.4
aF121.7
aF329.7
aF324.7
aa(lp1009
aa(lp1010
(lp1011
S'002926'
p1012
ag4
ag5
aF408.0
aF3.0
aF500.0
aF330.8
aa(lp1013
aa(lp1014
(lp1015
S'008646'
p1016
ag4
ag5
aF5.5
aF148.6
aF133.9
aF362.1
aa(lp1017
(lp1018
F305.0
aF69.0
aF493.0
aF276.0
aa(lp1019
F3.0
aF115.0
aF221.0
aF375.0
aaaa(lp1020
(lp1021
S'008864'
p1022
ag4
ag5
aF1.7
aF187.1
aF118.1
aF327.8
aa(lp1023
(lp1024
F344.0
aF153.0
aF500.0
aF323.0
aaaa(lp1025
(lp1026
S'008941'
p1027
ag4
ag5
aF433.8
aF182.7
aF500.0
aF357.6
aa(lp1028
(lp1029
F5.0
aF91.0
aF178.0
aF261.0
aaaa(lp1030
(lp1031
S'009662'
p1032
ag4
ag5
aF17.3
aF259.3
aF108.1
aF361.7
aa(lp1033
(lp1034
F224.0
aF209.0
aF346.0
aF302.0
aa(lp1035
F352.0
aF199.0
aF461.0
aF284.0
aa(lp1036
F2.0
aF269.0
aF70.0
aF375.0
aaaa(lp1037
(lp1038
S'004210'
p1039
ag4
ag5
aF41.8
aF158.7
aF284.6
aF374.0
aa(lp1040
aa(lp1041
(lp1042
S'003197'
p1043
ag4
ag5
aF292.2
aF132.7
aF393.3
aF229.6
aa(lp1044
aa(lp1045
(lp1046
S'005218'
p1047
ag4
ag5
aF28.4
aF136.5
aF255.3
aF361.3
aa(lp1048
(lp1049
F140.0
aF70.0
aF401.0
aF262.0
aaaa(lp1050
(lp1051
S'007393'
p1052
ag4
ag5
aF71.3
aF227.4
aF197.2
aF333.0
aa(lp1053
(lp1054
F137.0
aF174.0
aF216.0
aF240.0
aa(lp1055
F314.0
aF189.0
aF440.0
aF333.0
aa(lp1056
F60.0
aF214.0
aF116.0
aF333.0
aaaa(lp1057
(lp1058
S'003049'
p1059
ag4
ag5
aF247.9
aF264.9
aF286.9
aF366.4
aa(lp1060
(lp1061
F249.0
aF241.0
aF361.0
aF375.0
aa(lp1062
F171.0
aF251.0
aF304.0
aF375.0
aa(lp1063
F55.0
aF227.0
aF160.0
aF354.0
aa(lp1064
F125.0
aF212.0
aF181.0
aF238.0
aa(lp1065
F43.0
aF220.0
aF125.0
aF301.0
aa(lp1066
F2.0
aF199.0
aF63.0
aF269.0
aaaa(lp1067
(lp1068
S'000227'
p1069
ag4
ag5
aF10.6
aF128.1
aF153.3
aF320.9
aa(lp1070
aa(lp1071
(lp1072
S'005801'
p1073
ag4
ag5
aF1.0
aF28.3
aF98.7
aF137.6
aa(lp1074
aa(lp1075
(lp1076
S'006705'
p1077
ag4
ag5
aF118.9
aF192.9
aF278.7
aF301.9
aa(lp1078
(lp1079
F128.0
aF147.0
aF257.0
aF224.0
aaaa(lp1080
(lp1081
S'005935'
p1082
ag4
ag5
aF215.1
aF255.3
aF330.9
aF371.1
aa(lp1083
aa(lp1084
(lp1085
S'000641'
p1086
ag4
ag5
aF134.9
aF29.3
aF323.6
aF321.4
aa(lp1087
(lp1088
F34.0
aF30.0
aF406.0
aF375.0
aaaa(lp1089
(lp1090
S'006577'
p1091
ag4
ag5
aF329.7
aF225.1
aF416.9
aF375.0
aa(lp1092
aa(lp1093
(lp1094
S'007181'
p1095
ag4
ag5
aF250.1
aF145.3
aF382.9
aF285.1
aa(lp1096
aa(lp1097
(lp1098
S'009802'
p1099
ag4
ag5
aF181.2
aF150.5
aF481.6
aF373.8
aa(lp1100
(lp1101
F1.0
aF1.0
aF461.0
aF375.0
aaaa(lp1102
(lp1103
S'004166'
p1104
ag4
ag5
aF127.4
aF170.7
aF238.4
aF246.8
aa(lp1105
(lp1106
F485.0
aF189.0
aF500.0
aF222.0
aa(lp1107
F358.0
aF195.0
aF398.0
aF239.0
aa(lp1108
F300.0
aF205.0
aF355.0
aF254.0
aa(lp1109
F265.0
aF278.0
aF374.0
aF332.0
aaaa(lp1110
(lp1111
S'009263'
p1112
ag4
ag5
aF259.8
aF161.2
aF378.3
aF358.6
aa(lp1113
(lp1114
F61.0
aF160.0
aF136.0
aF307.0
aaaa(lp1115
(lp1116
S'004139'
p1117
ag4
ag5
aF176.2
aF58.7
aF474.0
aF217.8
aa(lp1118
(lp1119
F42.0
aF63.0
aF461.0
aF373.0
aa(lp1120
F360.0
aF22.0
aF430.0
aF135.0
aa(lp1121
F429.0
aF30.0
aF500.0
aF233.0
aaaa(lp1122
(lp1123
S'003322'
p1124
ag4
ag5
aF163.5
aF189.1
aF277.6
aF290.5
aa(lp1125
(lp1126
F446.0
aF235.0
aF500.0
aF375.0
aaaa(lp1127
(lp1128
S'009554'
p1129
ag4
ag5
aF208.6
aF201.2
aF478.5
aF349.9
aa(lp1130
aa(lp1131
(lp1132
S'003624'
p1133
ag4
ag5
aF9.7
aF185.3
aF75.8
aF375.0
aa(lp1134
aa(lp1135
(lp1136
S'004767'
p1137
ag4
ag5
aF366.7
aF13.3
aF448.9
aF160.5
aa(lp1138
aa(lp1139
(lp1140
S'003139'
p1141
ag4
ag5
aF11.2
aF49.2
aF109.3
aF242.1
aa(lp1142
(lp1143
F422.0
aF43.0
aF454.0
aF129.0
aa(lp1144
F443.0
aF118.0
aF500.0
aF199.0
aa(lp1145
F353.0
aF70.0
aF430.0
aF130.0
aa(lp1146
F111.0
aF52.0
aF150.0
aF99.0
aa(lp1147
F129.0
aF63.0
aF177.0
aF110.0
aa(lp1148
F189.0
aF53.0
aF239.0
aF137.0
aa(lp1149
F3.0
aF89.0
aF68.0
aF262.0
aaaa(lp1150
(lp1151
S'006451'
p1152
ag4
ag5
aF354.4
aF6.6
aF500.0
aF244.4
aa(lp1153
(lp1154
F86.0
aF1.0
aF500.0
aF223.0
aaaa(lp1155
(lp1156
S'009503'
p1157
ag4
ag5
aF45.8
aF234.1
aF264.5
aF375.0
aa(lp1158
aa(lp1159
(lp1160
S'000650'
p1161
ag4
ag5
aF1.0
aF150.3
aF54.1
aF261.4
aa(lp1162
aa(lp1163
(lp1164
S'006743'
p1165
ag4
ag5
aF396.2
aF122.6
aF468.9
aF264.6
aa(lp1166
(lp1167
F1.0
aF194.0
aF35.0
aF356.0
aaaa(lp1168
(lp1169
S'003418'
p1170
ag4
ag5
aF9.1
aF202.1
aF95.8
aF292.5
aa(lp1171
aa(lp1172
(lp1173
S'001219'
p1174
ag4
ag5
aF398.7
aF159.5
aF477.4
aF332.0
aa(lp1175
aa(lp1176
(lp1177
S'000414'
p1178
ag4
ag5
aF343.8
aF181.0
aF450.2
aF361.2
aa(lp1179
aa(lp1180
(lp1181
S'009513'
p1182
ag4
ag5
aF250.0
aF211.1
aF344.1
aF398.6
aa(lp1183
(lp1184
F67.0
aF232.0
aF336.0
aF482.0
aaaa(lp1185
(lp1186
S'004449'
p1187
ag4
ag5
aF58.4
aF124.5
aF152.7
aF356.6
aa(lp1188
(lp1189
F70.0
aF216.0
aF203.0
aF372.0
aa(lp1190
F39.0
aF178.0
aF117.0
aF322.0
aa(lp1191
F477.0
aF220.0
aF492.0
aF276.0
aa(lp1192
F75.0
aF113.0
aF128.0
aF193.0
aa(lp1193
F100.0
aF101.0
aF142.0
aF172.0
aaaa(lp1194
(lp1195
S'006745'
p1196
ag4
ag5
aF141.1
aF185.0
aF469.0
aF324.9
aa(lp1197
(lp1198
F263.0
aF189.0
aF347.0
aF264.0
aa(lp1199
F171.0
aF212.0
aF265.0
aF296.0
aa(lp1200
F159.0
aF156.0
aF203.0
aF211.0
aa(lp1201
F102.0
aF218.0
aF178.0
aF320.0
aaaa(lp1202
(lp1203
S'009435'
p1204
ag4
ag5
aF155.0
aF156.9
aF248.3
aF266.0
aa(lp1205
(lp1206
F376.0
aF141.0
aF500.0
aF294.0
aaaa(lp1207
(lp1208
S'007255'
p1209
ag4
ag5
aF259.4
aF66.6
aF346.0
aF248.0
aa(lp1210
(lp1211
F183.0
aF92.0
aF376.0
aF375.0
aa(lp1212
F281.0
aF77.0
aF429.0
aF318.0
aa(lp1213
F123.0
aF40.0
aF281.0
aF238.0
aa(lp1214
F28.0
aF43.0
aF191.0
aF248.0
aaaa(lp1215
(lp1216
S'000621'
p1217
ag4
ag5
aF415.3
aF176.8
aF498.6
aF375.0
aa(lp1218
(lp1219
F458.0
aF148.0
aF500.0
aF218.0
aa(lp1220
F352.0
aF162.0
aF448.0
aF375.0
aaaa(lp1221
(lp1222
S'005060'
p1223
ag4
ag5
aF16.8
aF166.7
aF60.2
aF250.4
aa(lp1224
(lp1225
F2.0
aF279.0
aF47.0
aF357.0
aaaa(lp1226
(lp1227
S'007255'
p1228
ag4
ag5
aF13.9
aF25.9
aF254.8
aF317.2
aa(lp1229
(lp1230
F183.0
aF92.0
aF376.0
aF375.0
aa(lp1231
F281.0
aF77.0
aF429.0
aF318.0
aa(lp1232
F123.0
aF40.0
aF281.0
aF238.0
aa(lp1233
F28.0
aF43.0
aF191.0
aF248.0
aaaa(lp1234
(lp1235
S'000314'
p1236
ag4
ag5
aF3.8
aF229.4
aF40.3
aF290.6
aa(lp1237
(lp1238
F212.0
aF178.0
aF298.0
aF293.0
aa(lp1239
F199.0
aF124.0
aF226.0
aF142.0
aa(lp1240
F256.0
aF142.0
aF292.0
aF199.0
aa(lp1241
F273.0
aF126.0
aF293.0
aF149.0
aa(lp1242
F288.0
aF132.0
aF315.0
aF202.0
aa(lp1243
F194.0
aF135.0
aF245.0
aF206.0
aa(lp1244
F181.0
aF128.0
aF200.0
aF200.0
aaaa(lp1245
(lp1246
S'009226'
p1247
ag4
ag5
aF44.6
aF231.9
aF182.8
aF375.0
aa(lp1248
aa(lp1249
(lp1250
S'003221'
p1251
ag4
ag5
aF456.4
aF239.8
aF496.1
aF310.4
aa(lp1252
(lp1253
F417.0
aF247.0
aF500.0
aF349.0
aaaa(lp1254
(lp1255
S'005025'
p1256
ag4
ag5
aF37.4
aF110.0
aF183.5
aF375.0
aa(lp1257
aa(lp1258
(lp1259
S'009217'
p1260
ag4
ag5
aF397.3
aF197.0
aF488.2
aF289.4
aa(lp1261
aa(lp1262
(lp1263
S'003676'
p1264
ag4
ag5
aF204.7
aF81.0
aF314.0
aF286.0
aa(lp1265
(lp1266
F43.0
aF177.0
aF150.0
aF294.0
aaaa(lp1267
(lp1268
S'004971'
p1269
ag4
ag5
aF186.2
aF266.2
aF277.0
aF375.0
aa(lp1270
(lp1271
F199.0
aF177.0
aF430.0
aF374.0
aa(lp1272
F99.0
aF257.0
aF294.0
aF373.0
aaaa(lp1273
(lp1274
S'000239'
p1275
ag4
ag5
aF1.6
aF172.1
aF27.8
aF285.6
aa(lp1276
aa(lp1277
(lp1278
S'005767'
p1279
ag4
ag5
aF90.1
aF181.2
aF215.6
aF375.0
aa(lp1280
(lp1281
F407.0
aF114.0
aF461.0
aF195.0
aaaa(lp1282
(lp1283
S'006500'
p1284
ag4
ag5
aF274.8
aF173.1
aF492.0
aF333.0
aa(lp1285
aa(lp1286
(lp1287
S'005943'
p1288
ag4
ag5
aF344.4
aF137.8
aF496.0
aF375.0
aa(lp1289
aa(lp1290
(lp1291
S'001921'
p1292
ag4
ag5
aF36.6
aF325.8
aF133.3
aF466.5
aa(lp1293
aa(lp1294
(lp1295
S'001826'
p1296
ag4
ag5
aF168.2
aF202.5
aF302.2
aF375.0
aa(lp1297
(lp1298
F387.0
aF155.0
aF486.0
aF304.0
aaaa(lp1299
(lp1300
S'008428'
p1301
ag4
ag5
aF31.9
aF134.9
aF355.2
aF364.7
aa(lp1302
aa(lp1303
(lp1304
S'000487'
p1305
ag4
ag5
aF174.7
aF247.5
aF265.0
aF328.3
aa(lp1306
(lp1307
F343.0
aF248.0
aF482.0
aF376.0
aa(lp1308
F35.0
aF253.0
aF182.0
aF376.0
aa(lp1309
F181.0
aF176.0
aF253.0
aF336.0
aa(lp1310
F101.0
aF179.0
aF169.0
aF264.0
aa(lp1311
F259.0
aF152.0
aF302.0
aF229.0
aaaa(lp1312
(lp1313
S'006287'
p1314
ag4
ag5
aF297.8
aF214.3
aF475.0
aF375.0
aa(lp1315
(lp1316
F472.0
aF248.0
aF500.0
aF375.0
aaaa(lp1317
(lp1318
S'003761'
p1319
ag4
ag5
aF397.5
aF182.0
aF495.0
aF375.0
aa(lp1320
(lp1321
F207.0
aF215.0
aF328.0
aF375.0
aa(lp1322
F74.0
aF178.0
aF197.0
aF375.0
aa(lp1323
F177.0
aF153.0
aF261.0
aF319.0
aaaa(lp1324
(lp1325
S'008240'
p1326
ag4
ag5
aF253.5
aF51.6
aF474.5
aF156.7
aa(lp1327
aa(lp1328
(lp1329
S'003438'
p1330
ag4
ag5
aF34.6
aF224.5
aF220.1
aF363.7
aa(lp1331
(lp1332
F164.0
aF22.0
aF355.0
aF340.0
aaaa(lp1333
(lp1334
S'002353'
p1335
ag4
ag5
aF240.5
aF242.5
aF301.7
aF333.5
aa(lp1336
(lp1337
F34.0
aF247.0
aF177.0
aF375.0
aa(lp1338
F265.0
aF220.0
aF303.0
aF241.0
aa(lp1339
F202.0
aF233.0
aF254.0
aF327.0
aa(lp1340
F197.0
aF223.0
aF220.0
aF246.0
aaaa(lp1341
(lp1342
S'008650'
p1343
ag4
ag5
aF312.1
aF166.6
aF479.3
aF372.1
aa(lp1344
aa(lp1345
(lp1346
S'000658'
p1347
ag4
ag5
aF194.6
aF235.8
aF475.9
aF371.8
aa(lp1348
aa(lp1349
(lp1350
S'001391'
p1351
ag4
ag5
aF10.5
aF254.0
aF215.0
aF374.8
aa(lp1352
aa(lp1353
(lp1354
S'002971'
p1355
ag4
ag5
aF175.8
aF262.0
aF246.3
aF316.4
aa(lp1356
aa(lp1357
(lp1358
S'000326'
p1359
ag4
ag5
aF59.7
aF191.5
aF423.0
aF375.0
aa(lp1360
aa(lp1361
(lp1362
S'006923'
p1363
ag4
ag5
aF67.3
aF167.8
aF244.4
aF281.8
aa(lp1364
(lp1365
F126.0
aF149.0
aF207.0
aF275.0
aa(lp1366
F265.0
aF136.0
aF372.0
aF286.0
aaaa(lp1367
(lp1368
S'009846'
p1369
ag4
ag5
aF93.8
aF109.4
aF140.2
aF185.0
aa(lp1370
(lp1371
F36.0
aF116.0
aF80.0
aF193.0
aaaa(lp1372
(lp1373
S'006816'
p1374
ag4
ag5
aF43.2
aF231.4
aF208.3
aF479.8
aa(lp1375
aa(lp1376
(lp1377
S'009397'
p1378
ag4
ag5
aF327.7
aF232.4
aF441.2
aF365.8
aa(lp1379
(lp1380
F105.0
aF188.0
aF190.0
aF286.0
aaaa(lp1381
(lp1382
S'009294'
p1383
ag4
ag5
aF134.1
aF282.6
aF309.8
aF471.2
aa(lp1384
(lp1385
F1.0
aF246.0
aF276.0
aF500.0
aaaa(lp1386
(lp1387
S'009486'
p1388
ag4
ag5
aF177.4
aF241.0
aF289.5
aF481.4
aa(lp1389
(lp1390
F241.0
aF272.0
aF344.0
aF499.0
aa(lp1391
F310.0
aF213.0
aF358.0
aF263.0
aa(lp1392
F202.0
aF231.0
aF266.0
aF401.0
aa(lp1393
F220.0
aF217.0
aF247.0
aF275.0
aaaa(lp1394
(lp1395
S'003167'
p1396
ag4
ag5
aF388.5
aF120.6
aF494.3
aF375.0
aa(lp1397
aa(lp1398
(lp1399
S'001600'
p1400
ag4
ag5
aF57.2
aF245.5
aF162.8
aF375.0
aa(lp1401
(lp1402
F167.0
aF298.0
aF265.0
aF375.0
aa(lp1403
F265.0
aF322.0
aF408.0
aF375.0
aaaa(lp1404
(lp1405
S'007255'
p1406
ag4
ag5
aF307.2
aF177.1
aF417.2
aF359.6
aa(lp1407
(lp1408
F183.0
aF92.0
aF376.0
aF375.0
aa(lp1409
F281.0
aF77.0
aF429.0
aF318.0
aa(lp1410
F123.0
aF40.0
aF281.0
aF238.0
aa(lp1411
F28.0
aF43.0
aF191.0
aF248.0
aaaa(lp1412
(lp1413
S'004659'
p1414
ag4
ag5
aF6.2
aF212.8
aF77.1
aF358.9
aa(lp1415
aa(lp1416
(lp1417
S'000603'
p1418
ag4
ag5
aF272.2
aF175.9
aF409.5
aF352.8
aa(lp1419
aa(lp1420
(lp1421
S'008543'
p1422
ag4
ag5
aF416.3
aF216.4
aF500.0
aF372.9
aa(lp1423
(lp1424
F358.0
aF195.0
aF472.0
aF302.0
aaaa(lp1425
(lp1426
S'008627'
p1427
ag4
ag5
aF332.4
aF169.0
aF499.5
aF375.0
aa(lp1428
aa(lp1429
(lp1430
S'000595'
p1431
ag4
ag5
aF211.3
aF149.2
aF346.8
aF218.4
aa(lp1432
(lp1433
F367.0
aF167.0
aF434.0
aF223.0
aa(lp1434
F299.0
aF153.0
aF348.0
aF199.0
aa(lp1435
F162.0
aF150.0
aF220.0
aF187.0
aa(lp1436
F147.0
aF180.0
aF218.0
aF354.0
aa(lp1437
F203.0
aF211.0
aF336.0
aF374.0
aa(lp1438
F369.0
aF227.0
aF500.0
aF375.0
aaaa(lp1439
(lp1440
S'000280'
p1441
ag4
ag5
aF259.6
aF126.0
aF339.3
aF216.2
aa(lp1442
aa(lp1443
(lp1444
S'005221'
p1445
ag4
ag5
aF1.6
aF15.1
aF67.2
aF236.9
aa(lp1446
aa(lp1447
(lp1448
S'005721'
p1449
ag4
ag5
aF327.3
aF209.4
aF488.7
aF375.0
aa(lp1450
aa(lp1451
(lp1452
S'007202'
p1453
ag4
ag5
aF26.3
aF129.5
aF124.8
aF182.2
aa(lp1454
(lp1455
F118.0
aF127.0
aF150.0
aF177.0
aa(lp1456
F159.0
aF130.0
aF197.0
aF175.0
aa(lp1457
F80.0
aF128.0
aF118.0
aF177.0
aa(lp1458
F53.0
aF127.0
aF86.0
aF179.0
aa(lp1459
F33.0
aF130.0
aF57.0
aF176.0
aa(lp1460
F314.0
aF136.0
aF390.0
aF178.0
aa(lp1461
F296.0
aF133.0
aF348.0
aF176.0
aa(lp1462
F281.0
aF130.0
aF341.0
aF176.0
aa(lp1463
F255.0
aF126.0
aF320.0
aF177.0
aaaa(lp1464
(lp1465
S'003757'
p1466
ag4
ag5
aF312.7
aF127.1
aF443.9
aF261.1
aa(lp1467
aa(lp1468
(lp1469
S'004941'
p1470
ag4
ag5
aF101.9
aF83.5
aF375.0
aF448.3
aa(lp1471
aa(lp1472
(lp1473
S'007442'
p1474
ag4
ag5
aF132.7
aF28.9
aF209.4
aF104.2
aa(lp1475
(lp1476
F419.0
aF52.0
aF500.0
aF219.0
aa(lp1477
F358.0
aF38.0
aF404.0
aF100.0
aa(lp1478
F228.0
aF2.0
aF296.0
aF44.0
aa(lp1479
F134.0
aF36.0
aF181.0
aF82.0
aa(lp1480
F43.0
aF41.0
aF124.0
aF184.0
aa(lp1481
F1.0
aF94.0
aF76.0
aF310.0
aaaa(lp1482
(lp1483
S'008646'
p1484
ag4
ag5
aF200.4
aF68.8
aF297.9
aF269.0
aa(lp1485
(lp1486
F305.0
aF69.0
aF493.0
aF276.0
aa(lp1487
F3.0
aF115.0
aF221.0
aF375.0
aaaa(lp1488
(lp1489
S'005804'
p1490
ag4
ag5
aF246.1
aF190.7
aF441.5
aF348.4
aa(lp1491
aa(lp1492
(lp1493
S'007561'
p1494
ag4
ag5
aF180.5
aF72.2
aF375.1
aF188.5
aa(lp1495
aa(lp1496
(lp1497
S'005993'
p1498
ag4
ag5
aF35.3
aF273.5
aF190.8
aF370.8
aa(lp1499
aa(lp1500
(lp1501
S'009662'
p1502
ag4
ag5
aF115.1
aF234.4
aF202.9
aF316.7
aa(lp1503
(lp1504
F224.0
aF209.0
aF346.0
aF302.0
aa(lp1505
F352.0
aF199.0
aF461.0
aF284.0
aa(lp1506
F2.0
aF269.0
aF70.0
aF375.0
aaaa(lp1507
(lp1508
S'007564'
p1509
ag4
ag5
aF28.2
aF179.9
aF120.7
aF318.0
aa(lp1510
(lp1511
F294.0
aF211.0
aF357.0
aF310.0
aaaa(lp1512
(lp1513
S'002624'
p1514
ag4
ag5
aF93.1
aF223.3
aF271.0
aF375.0
aa(lp1515
aa(lp1516
(lp1517
S'009276'
p1518
ag4
ag5
aF79.2
aF26.2
aF173.2
aF181.2
aa(lp1519
aa(lp1520
(lp1521
S'002617'
p1522
ag4
ag5
aF10.7
aF135.9
aF85.4
aF266.9
aa(lp1523
(lp1524
F46.0
aF134.0
aF125.0
aF232.0
aa(lp1525
F13.0
aF129.0
aF67.0
aF220.0
aaaa(lp1526
(lp1527
S'005589'
p1528
ag4
ag5
aF98.3
aF132.8
aF320.8
aF274.6
aa(lp1529
(lp1530
F388.0
aF72.0
aF458.0
aF201.0
aa(lp1531
F327.0
aF102.0
aF419.0
aF252.0
aaaa(lp1532
(lp1533
S'000234'
p1534
ag4
ag5
aF203.1
aF202.2
aF286.5
aF358.0
aa(lp1535
(lp1536
F307.0
aF92.0
aF472.0
aF326.0
aaaa(lp1537
(lp1538
S'007501'
p1539
ag4
ag5
aF67.4
aF50.7
aF166.1
aF124.7
aa(lp1540
aa(lp1541
(lp1542
S'002026'
p1543
ag4
ag5
aF393.9
aF110.1
aF486.3
aF217.4
aa(lp1544
aa(lp1545
(lp1546
S'009313'
p1547
ag4
ag5
aF9.0
aF346.7
aF166.0
aF500.0
aa(lp1548
(lp1549
F2.0
aF277.0
aF137.0
aF362.0
aa(lp1550
F1.0
aF428.0
aF177.0
aF500.0
aaaa(lp1551
(lp1552
S'008073'
p1553
ag4
ag5
aF91.5
aF226.2
aF341.9
aF372.3
aa(lp1554
(lp1555
F262.0
aF197.0
aF331.0
aF228.0
aa(lp1556
F162.0
aF209.0
aF264.0
aF364.0
aa(lp1557
F181.0
aF231.0
aF292.0
aF374.0
aa(lp1558
F291.0
aF273.0
aF437.0
aF375.0
aaaa(lp1559
(lp1560
S'002073'
p1561
ag4
ag5
aF48.1
aF53.1
aF296.9
aF333.0
aa(lp1562
aa(lp1563
(lp1564
S'000547'
p1565
ag4
ag5
aF304.2
aF239.7
aF368.1
aF454.1
aa(lp1566
(lp1567
F313.0
aF294.0
aF360.0
aF373.0
aa(lp1568
F163.0
aF303.0
aF216.0
aF353.0
aa(lp1569
F230.0
aF298.0
aF285.0
aF346.0
aa(lp1570
F158.0
aF252.0
aF201.0
aF312.0
aa(lp1571
F307.0
aF218.0
aF340.0
aF286.0
aa(lp1572
F341.0
aF246.0
aF373.0
aF302.0
aa(lp1573
F259.0
aF387.0
aF308.0
aF475.0
aa(lp1574
F207.0
aF438.0
aF260.0
aF495.0
aa(lp1575
F147.0
aF398.0
aF201.0
aF473.0
aa(lp1576
F160.0
aF339.0
aF208.0
aF410.0
aa(lp1577
F301.0
aF171.0
aF336.0
aF223.0
aa(lp1578
F48.0
aF297.0
aF91.0
aF369.0
aa(lp1579
F22.0
aF418.0
aF80.0
aF495.0
aaaa(lp1580
(lp1581
S'008679'
p1582
ag4
ag5
aF389.9
aF238.0
aF444.4
aF310.4
aa(lp1583
aa(lp1584
(lp1585
S'005898'
p1586
ag4
ag5
aF360.4
aF110.3
aF405.5
aF155.4
aa(lp1587
(lp1588
F1.0
aF199.0
aF57.0
aF354.0
aa(lp1589
F426.0
aF124.0
aF465.0
aF159.0
aa(lp1590
F405.0
aF121.0
aF472.0
aF195.0
aa(lp1591
F420.0
aF124.0
aF479.0
aF214.0
aa(lp1592
F311.0
aF117.0
aF350.0
aF156.0
aa(lp1593
F295.0
aF122.0
aF347.0
aF160.0
aa(lp1594
F281.0
aF125.0
aF346.0
aF167.0
aa(lp1595
F257.0
aF115.0
aF290.0
aF161.0
aa(lp1596
F244.0
aF121.0
aF282.0
aF170.0
aa(lp1597
F185.0
aF134.0
aF227.0
aF189.0
aa(lp1598
F369.0
aF114.0
aF407.0
aF135.0
aa(lp1599
F348.0
aF135.0
aF397.0
aF202.0
aaaa(lp1600
(lp1601
S'008830'
p1602
ag4
ag5
aF109.6
aF133.8
aF474.0
aF372.3
aa(lp1603
aa(lp1604
(lp1605
S'009263'
p1606
ag4
ag5
aF260.6
aF111.1
aF461.7
aF254.9
aa(lp1607
(lp1608
F61.0
aF160.0
aF136.0
aF307.0
aaaa(lp1609
(lp1610
S'008113'
p1611
ag4
ag5
aF14.7
aF80.1
aF166.3
aF274.2
aa(lp1612
(lp1613
F119.0
aF136.0
aF209.0
aF284.0
aa(lp1614
F276.0
aF134.0
aF364.0
aF270.0
aa(lp1615
F211.0
aF147.0
aF291.0
aF303.0
aa(lp1616
F199.0
aF126.0
aF248.0
aF197.0
aaaa(lp1617
(lp1618
S'004919'
p1619
ag4
ag5
aF7.8
aF4.9
aF304.7
aF355.3
aa(lp1620
aa(lp1621
(lp1622
S'007287'
p1623
ag4
ag5
aF202.6
aF82.9
aF338.1
aF179.2
aa(lp1624
aa(lp1625
(lp1626
S'000084'
p1627
ag4
ag5
aF1.0
aF276.7
aF125.2
aF375.0
aa(lp1628
(lp1629
F339.0
aF156.0
aF390.0
aF235.0
aa(lp1630
F291.0
aF171.0
aF346.0
aF273.0
aa(lp1631
F224.0
aF165.0
aF263.0
aF185.0
aa(lp1632
F142.0
aF174.0
aF193.0
aF276.0
aa(lp1633
F232.0
aF192.0
aF291.0
aF303.0
aaaa(lp1634
(lp1635
S'003029'
p1636
ag4
ag5
aF219.7
aF99.4
aF457.5
aF289.4
aa(lp1637
aa(lp1638
(lp1639
S'007531'
p1640
ag4
ag5
aF8.8
aF169.7
aF188.9
aF374.1
aa(lp1641
aa(lp1642
(lp1643
S'007262'
p1644
ag4
ag5
aF403.5
aF213.0
aF467.2
aF333.0
aa(lp1645
aa(lp1646
(lp1647
S'003624'
p1648
ag4
ag5
aF337.6
aF214.9
aF368.0
aF292.3
aa(lp1649
aa(lp1650
(lp1651
S'001740'
p1652
ag4
ag5
aF20.9
aF40.7
aF254.6
aF375.0
aa(lp1653
aa(lp1654
(lp1655
S'003884'
p1656
ag4
ag5
aF148.7
aF9.6
aF224.3
aF86.5
aa(lp1657
aa(lp1658
(lp1659
S'006746'
p1660
ag4
ag5
aF433.8
aF122.6
aF499.9
aF334.0
aa(lp1661
aa(lp1662
(lp1663
S'005844'
p1664
ag4
ag5
aF268.2
aF85.4
aF322.4
aF118.4
aa(lp1665
(lp1666
F76.0
aF67.0
aF216.0
aF312.0
aa(lp1667
F102.0
aF52.0
aF278.0
aF350.0
aa(lp1668
F199.0
aF84.0
aF320.0
aF292.0
aa(lp1669
F232.0
aF76.0
aF396.0
aF329.0
aaaa(lp1670
(lp1671
S'008889'
p1672
ag4
ag5
aF3.4
aF31.7
aF322.9
aF359.7
aa(lp1673
aa(lp1674
(lp1675
S'005555'
p1676
ag4
ag5
aF108.8
aF43.0
aF306.7
aF362.2
aa(lp1677
(lp1678
F127.0
aF46.0
aF480.0
aF375.0
aa(lp1679
F323.0
aF1.0
aF500.0
aF181.0
aaaa(lp1680
(lp1681
S'004096'
p1682
ag4
ag5
aF1.8
aF14.7
aF136.8
aF254.4
aa(lp1683
aa(lp1684
(lp1685
S'002463'
p1686
ag4
ag5
aF186.6
aF183.7
aF322.5
aF457.7
aa(lp1687
(lp1688
F263.0
aF208.0
aF333.0
aF440.0
aa(lp1689
F5.0
aF311.0
aF111.0
aF410.0
aaaa(lp1690
(lp1691
S'004252'
p1692
ag4
ag5
aF9.2
aF107.9
aF136.9
aF288.3
aa(lp1693
aa(lp1694
(lp1695
S'000642'
p1696
ag4
ag5
aF213.0
aF37.8
aF479.9
aF375.0
aa(lp1697
(lp1698
F2.0
aF191.0
aF426.0
aF375.0
aaaa(lp1699
(lp1700
S'009595'
p1701
ag4
ag5
aF152.1
aF53.0
aF301.0
aF203.2
aa(lp1702
(lp1703
F43.0
aF17.0
aF437.0
aF263.0
aaaa(lp1704
(lp1705
S'002264'
p1706
ag4
ag5
aF212.0
aF282.4
aF277.3
aF347.5
aa(lp1707
(lp1708
F210.0
aF219.0
aF274.0
aF363.0
aaaa(lp1709
(lp1710
S'003909'
p1711
ag4
ag5
aF396.9
aF217.1
aF488.3
aF326.5
aa(lp1712
aa(lp1713
(lp1714
S'007835'
p1715
ag4
ag5
aF16.8
aF184.7
aF109.7
aF320.6
aa(lp1716
(lp1717
F377.0
aF140.0
aF475.0
aF255.0
aa(lp1718
F347.0
aF238.0
aF500.0
aF332.0
aaaa(lp1719
(lp1720
S'003345'
p1721
ag4
ag5
aF293.9
aF231.5
aF327.7
aF348.0
aa(lp1722
(lp1723
F44.0
aF196.0
aF80.0
aF237.0
aa(lp1724
F123.0
aF202.0
aF161.0
aF230.0
aa(lp1725
F177.0
aF204.0
aF217.0
aF222.0
aa(lp1726
F238.0
aF205.0
aF279.0
aF223.0
aa(lp1727
F294.0
aF205.0
aF336.0
aF230.0
aa(lp1728
F376.0
aF201.0
aF412.0
aF241.0
aa(lp1729
F372.0
aF209.0
aF440.0
aF328.0
aa(lp1730
F302.0
aF226.0
aF373.0
aF351.0
aa(lp1731
F231.0
aF222.0
aF291.0
aF348.0
aa(lp1732
F159.0
aF223.0
aF220.0
aF348.0
aa(lp1733
F86.0
aF220.0
aF152.0
aF348.0
aa(lp1734
F22.0
aF203.0
aF85.0
aF327.0
aaaa(lp1735
(lp1736
S'006504'
p1737
ag4
ag5
aF154.1
aF47.0
aF294.7
aF332.3
aa(lp1738
aa(lp1739
(lp1740
S'006293'
p1741
ag4
ag5
aF4.3
aF177.1
aF115.4
aF327.4
aa(lp1742
(lp1743
F94.0
aF191.0
aF202.0
aF289.0
aaaa(lp1744
(lp1745
S'007756'
p1746
ag4
ag5
aF38.7
aF230.2
aF282.6
aF367.6
aa(lp1747
(lp1748
F333.0
aF269.0
aF440.0
aF375.0
aa(lp1749
F8.0
aF277.0
aF227.0
aF375.0
aaaa(lp1750
(lp1751
S'003515'
p1752
ag4
ag5
aF2.4
aF148.6
aF41.7
aF243.0
aa(lp1753
aa(lp1754
(lp1755
S'005898'
p1756
ag4
ag5
aF178.5
aF130.0
aF392.8
aF224.6
aa(lp1757
(lp1758
F1.0
aF199.0
aF57.0
aF354.0
aa(lp1759
F426.0
aF124.0
aF465.0
aF159.0
aa(lp1760
F405.0
aF121.0
aF472.0
aF195.0
aa(lp1761
F420.0
aF124.0
aF479.0
aF214.0
aa(lp1762
F311.0
aF117.0
aF350.0
aF156.0
aa(lp1763
F295.0
aF122.0
aF347.0
aF160.0
aa(lp1764
F281.0
aF125.0
aF346.0
aF167.0
aa(lp1765
F257.0
aF115.0
aF290.0
aF161.0
aa(lp1766
F244.0
aF121.0
aF282.0
aF170.0
aa(lp1767
F185.0
aF134.0
aF227.0
aF189.0
aa(lp1768
F369.0
aF114.0
aF407.0
aF135.0
aa(lp1769
F348.0
aF135.0
aF397.0
aF202.0
aaaa(lp1770
(lp1771
S'004427'
p1772
ag4
ag5
aF258.1
aF189.2
aF440.0
aF375.0
aa(lp1773
aa(lp1774
(lp1775
S'000115'
p1776
ag4
ag5
aF208.6
aF18.4
aF375.0
aF446.5
aa(lp1777
aa(lp1778
(lp1779
S'006516'
p1780
ag4
ag5
aF232.4
aF267.2
aF349.1
aF371.1
aa(lp1781
aa(lp1782
(lp1783
S'004184'
p1784
ag4
ag5
aF121.5
aF231.9
aF163.7
aF325.2
aa(lp1785
aa(lp1786
(lp1787
S'005754'
p1788
ag4
ag5
aF11.8
aF222.8
aF180.2
aF370.5
aa(lp1789
(lp1790
F195.0
aF189.0
aF278.0
aF298.0
aaaa(lp1791
(lp1792
S'008407'
p1793
ag4
ag5
aF202.8
aF207.9
aF440.8
aF373.4
aa(lp1794
(lp1795
F350.0
aF255.0
aF489.0
aF375.0
aa(lp1796
F349.0
aF210.0
aF436.0
aF317.0
aa(lp1797
F470.0
aF194.0
aF500.0
aF251.0
aaaa(lp1798
(lp1799
S'005180'
p1800
ag4
ag5
aF21.9
aF426.6
aF72.1
aF500.0
aa(lp1801
(lp1802
F169.0
aF377.0
aF375.0
aF500.0
aa(lp1803
F1.0
aF301.0
aF73.0
aF423.0
aaaa(lp1804
(lp1805
S'009385'
p1806
ag4
ag5
aF272.3
aF108.4
aF498.8
aF375.0
aa(lp1807
aa(lp1808
(lp1809
S'009176'
p1810
ag4
ag5
aF14.3
aF68.8
aF457.2
aF367.9
aa(lp1811
aa(lp1812
a(lp1813
a(lp1814
a(lp1815
a(lp1816
a(lp1817
a(lp1818
a(lp1819
a(lp1820
a(lp1821
a(lp1822
a(lp1823
a(lp1824
a(lp1825
a(lp1826
a(lp1827
a(lp1828
a(lp1829
a(lp1830
a(lp1831
a(lp1832
a(lp1833
a(lp1834
a(lp1835
a(lp1836
a(lp1837
a(lp1838
a(lp1839
a(lp1840
a(lp1841
a(lp1842
a(lp1843
a(lp1844
a(lp1845
a(lp1846
a(lp1847
a(lp1848
a(lp1849
a(lp1850
a(lp1851
a(lp1852
a(lp1853
a(lp1854
a(lp1855
a(lp1856
a(lp1857
a(lp1858
a(lp1859
a(lp1860
a(lp1861
a(lp1862
a(lp1863
a(lp1864
a(lp1865
a(lp1866
a(lp1867
a(lp1868
a(lp1869
a(lp1870
a(lp1871
a(lp1872
a(lp1873
a(lp1874
a(lp1875
a(lp1876
a(lp1877
a(lp1878
a(lp1879
a(lp1880
a(lp1881
a(lp1882
a(lp1883
a(lp1884
a(lp1885
a(lp1886
a(lp1887
a(lp1888
a(lp1889
a(lp1890
a(lp1891
a(lp1892
a(lp1893
a(lp1894
a(lp1895
a(lp1896
a(lp1897
a(lp1898
a(lp1899
a(lp1900
a(lp1901
a(lp1902
a(lp1903
a(lp1904
a(lp1905
a(lp1906
a(lp1907
a(lp1908
a(lp1909
a(lp1910
a(lp1911
a(lp1912
a(lp1913
a(lp1914
a(lp1915
a(lp1916
a(lp1917
a(lp1918
a(lp1919
a(lp1920
a(lp1921
a(lp1922
a(lp1923
a(lp1924
a(lp1925
a(lp1926
a(lp1927
a(lp1928
a(lp1929
a(lp1930
a(lp1931
a(lp1932
a(lp1933
a(lp1934
a(lp1935
a(lp1936
a(lp1937
a(lp1938
a(lp1939
a(lp1940
a(lp1941
a(lp1942
a(lp1943
a(lp1944
a(lp1945
a(lp1946
a(lp1947
a(lp1948
a(lp1949
a(lp1950
a(lp1951
a(lp1952
a(lp1953
a(lp1954
a(lp1955
a(lp1956
a(lp1957
a(lp1958
a(lp1959
a(lp1960
a(lp1961
a(lp1962
a(lp1963
a(lp1964
a(lp1965
a(lp1966
a(lp1967
a(lp1968
a(lp1969
a(lp1970
a(lp1971
a(lp1972
a(lp1973
a(lp1974
a(lp1975
a(lp1976
a(lp1977
a(lp1978
a(lp1979
a(lp1980
a(lp1981
a(lp1982
a(lp1983
a(lp1984
a(lp1985
a(lp1986
a(lp1987
a(lp1988
a(lp1989
a(lp1990
a(lp1991
a(lp1992
a(lp1993
a(lp1994
a(lp1995
a(lp1996
a(lp1997
a(lp1998
a(lp1999
a(lp2000
a(lp2001
a(lp2002
a(lp2003
a(lp2004
a(lp2005
a(lp2006
a(lp2007
a(lp2008
a(lp2009
a(lp2010
a(lp2011
a(lp2012
a(lp2013
a(lp2014
a(lp2015
a(lp2016
a(lp2017
a(lp2018
a(lp2019
a(lp2020
a(lp2021
a(lp2022
a(lp2023
a(lp2024
a(lp2025
a(lp2026
a(lp2027
a(lp2028
a(lp2029
a(lp2030
a(lp2031
a(lp2032
a(lp2033
a(lp2034
a(lp2035
a(lp2036
a(lp2037
a(lp2038
a(lp2039
a(lp2040
a(lp2041
a(lp2042
a(lp2043
a(lp2044
a(lp2045
a(lp2046
a(lp2047
a(lp2048
a(lp2049
a(lp2050
a(lp2051
a(lp2052
a(lp2053
a(lp2054
a(lp2055
a(lp2056
a(lp2057
a(lp2058
a(lp2059
a(lp2060
a(lp2061
a(lp2062
a(lp2063
a(lp2064
a(lp2065
a(lp2066
a(lp2067
a(lp2068
a(lp2069
a(lp2070
a(lp2071
a(lp2072
a(lp2073
a(lp2074
a(lp2075
a(lp2076
a(lp2077
a(lp2078
a(lp2079
a(lp2080
a(lp2081
a(lp2082
a(lp2083
a(lp2084
a(lp2085
a(lp2086
a(lp2087
a(lp2088
a(lp2089
a(lp2090
a(lp2091
a(lp2092
a(lp2093
a(lp2094
a(lp2095
a(lp2096
a(lp2097
a(lp2098
a(lp2099
a(lp2100
a(lp2101
a(lp2102
a(lp2103
a(lp2104
a(lp2105
a(lp2106
a(lp2107
a(lp2108
a(lp2109
a(lp2110
a(lp2111
a(lp2112
a(lp2113
a(lp2114
a(lp2115
a(lp2116
a(lp2117
a(lp2118
a(lp2119
a(lp2120
a(lp2121
a(lp2122
a(lp2123
a(lp2124
a(lp2125
a(lp2126
a(lp2127
a(lp2128
a(lp2129
a(lp2130
a(lp2131
a(lp2132
a(lp2133
a(lp2134
a(lp2135
a(lp2136
a(lp2137
a(lp2138
a(lp2139
a(lp2140
a(lp2141
a(lp2142
a(lp2143
a(lp2144
a(lp2145
a(lp2146
a(lp2147
a(lp2148
a(lp2149
a(lp2150
a(lp2151
a(lp2152
a(lp2153
a(lp2154
a(lp2155
a(lp2156
a(lp2157
a(lp2158
a(lp2159
a(lp2160
a(lp2161
a(lp2162
a(lp2163
a(lp2164
a(lp2165
a(lp2166
a(lp2167
a(lp2168
a(lp2169
a(lp2170
a(lp2171
a(lp2172
a(lp2173
a(lp2174
a(lp2175
a(lp2176
a(lp2177
a(lp2178
a(lp2179
a(lp2180
a(lp2181
a(lp2182
a(lp2183
a(lp2184
a(lp2185
a(lp2186
a(lp2187
a(lp2188
a(lp2189
a(lp2190
a(lp2191
a(lp2192
a(lp2193
a(lp2194
a(lp2195
a(lp2196
a(lp2197
a(lp2198
a(lp2199
a(lp2200
a(lp2201
a(lp2202
a(lp2203
a(lp2204
a(lp2205
a(lp2206
a(lp2207
a(lp2208
a(lp2209
a(lp2210
a(lp2211
a(lp2212
a(lp2213
a(lp2214
a(lp2215
a(lp2216
a(lp2217
a(lp2218
a(lp2219
a(lp2220
a(lp2221
a(lp2222
a(lp2223
a(lp2224
a(lp2225
a(lp2226
a(lp2227
a(lp2228
a(lp2229
a(lp2230
a(lp2231
a(lp2232
a(lp2233
a(lp2234
a(lp2235
a(lp2236
a(lp2237
a(lp2238
a(lp2239
a(lp2240
a(lp2241
a(lp2242
a(lp2243
a(lp2244
a(lp2245
a(lp2246
a(lp2247
a(lp2248
a(lp2249
a(lp2250
a(lp2251
a(lp2252
a(lp2253
a(lp2254
a(lp2255
a(lp2256
a(lp2257
a(lp2258
a(lp2259
a(lp2260
a(lp2261
a(lp2262
a.