(lp0
(lp1
(lp2
S'008863'
p3
aS'cow'
p4
aS'err_lowIoU'
p5
aF306.4
aF211.0
aF388.4
aF266.7
aa(lp6
(lp7
F196.0
aF242.0
aF244.0
aF298.0
aa(lp8
F224.0
aF194.0
aF249.0
aF243.0
aa(lp9
F253.0
aF211.0
aF289.0
aF262.0
aa(lp10
F119.0
aF207.0
aF155.0
aF234.0
aa(lp11
F65.0
aF238.0
aF125.0
aF297.0
aa(lp12
F83.0
aF232.0
aF156.0
aF287.0
aa(lp13
F307.0
aF213.0
aF354.0
aF261.0
aa(lp14
F344.0
aF209.0
aF391.0
aF263.0
aa(lp15
F436.0
aF213.0
aF479.0
aF268.0
aaaF0.995
aa(lp16
(lp17
S'002676'
p18
ag4
ag5
aF228.7
aF253.9
aF279.3
aF306.6
aa(lp19
(lp20
F426.0
aF273.0
aF458.0
aF296.0
aa(lp21
F382.0
aF271.0
aF418.0
aF300.0
aa(lp22
F348.0
aF244.0
aF384.0
aF296.0
aa(lp23
F286.0
aF252.0
aF337.0
aF304.0
aa(lp24
F245.0
aF248.0
aF286.0
aF299.0
aa(lp25
F204.0
aF252.0
aF256.0
aF308.0
aa(lp26
F215.0
aF282.0
aF238.0
aF309.0
aaaF0.991
aa(lp27
(lp28
S'009264'
p29
ag4
ag5
aF18.5
aF94.6
aF251.1
aF173.4
aa(lp30
(lp31
F134.0
aF95.0
aF500.0
aF374.0
aaaF0.978
aa(lp32
(lp33
S'000319'
p34
ag4
ag5
aF317.9
aF184.7
aF372.2
aF245.7
aa(lp35
aF0.978
aa(lp36
(lp37
S'003201'
p38
ag4
ag5
aF402.3
aF22.8
aF488.2
aF269.4
aa(lp39
(lp40
F1.0
aF53.0
aF166.0
aF260.0
aa(lp41
F137.0
aF25.0
aF416.0
aF298.0
aa(lp42
F320.0
aF30.0
aF500.0
aF261.0
aaaF0.977
aa(lp43
(lp44
S'006649'
p45
ag4
ag5
aF280.5
aF221.4
aF372.7
aF315.0
aa(lp46
aF0.962
aa(lp47
(lp48
S'004181'
p49
ag4
ag5
aF191.3
aF52.8
aF476.3
aF294.4
aa(lp50
(lp51
F8.0
aF8.0
aF500.0
aF311.0
aaaF0.962
aa(lp52
(lp53
S'000986'
p54
ag4
ag5
aF299.1
aF142.3
aF359.3
aF197.9
aa(lp55
(lp56
F258.0
aF150.0
aF390.0
aF294.0
aa(lp57
F109.0
aF151.0
aF172.0
aF212.0
aa(lp58
F51.0
aF138.0
aF169.0
aF215.0
aa(lp59
F304.0
aF146.0
aF422.0
aF230.0
aaaF0.952
aa(lp60
(lp61
S'001716'
p62
ag4
ag5
aF116.6
aF109.5
aF176.8
aF206.1
aa(lp63
(lp64
F454.0
aF191.0
aF495.0
aF216.0
aa(lp65
F386.0
aF166.0
aF409.0
aF189.0
aa(lp66
F265.0
aF181.0
aF321.0
aF234.0
aa(lp67
F274.0
aF150.0
aF302.0
aF182.0
aa(lp68
F252.0
aF167.0
aF273.0
aF210.0
aa(lp69
F213.0
aF176.0
aF255.0
aF238.0
aa(lp70
F170.0
aF160.0
aF206.0
aF223.0
aa(lp71
F122.0
aF148.0
aF168.0
aF199.0
aa(lp72
F114.0
aF108.0
aF171.0
aF163.0
aaaF0.95
aa(lp73
(lp74
S'000475'
p75
ag4
ag5
aF365.6
aF81.3
aF401.3
aF132.6
aa(lp76
aF0.943
aa(lp77
(lp78
S'003595'
p79
ag4
ag5
aF444.9
aF204.9
aF499.9
aF344.6
aa(lp80
aF0.941
aa(lp81
(lp82
S'006478'
p83
ag4
ag5
aF56.2
aF167.5
aF96.7
aF203.8
aa(lp84
aF0.928
aa(lp85
(lp86
S'003653'
p87
ag4
ag5
aF114.5
aF52.9
aF466.5
aF306.7
aa(lp88
aF0.921
aa(lp89
(lp90
S'008598'
p91
ag4
ag5
aF323.5
aF152.5
aF479.7
aF307.7
aa(lp92
aF0.915
aa(lp93
(lp94
S'002071'
p95
ag4
ag5
aF355.6
aF167.7
aF414.4
aF216.6
aa(lp96
aF0.905
aa(lp97
(lp98
S'003156'
p99
ag4
ag5
aF99.5
aF111.5
aF297.6
aF243.6
aa(lp100
aF0.904
aa(lp101
(lp102
S'005415'
p103
ag4
ag5
aF397.8
aF234.1
aF466.0
aF291.1
aa(lp104
aF0.903
aa(lp105
(lp106
S'005053'
p107
ag4
ag5
aF26.3
aF142.1
aF60.4
aF202.9
aa(lp108
aF0.894
aa(lp109
(lp110
S'003595'
p111
ag4
ag5
aF243.6
aF214.2
aF353.0
aF340.9
aa(lp112
aF0.891
aa(lp113
(lp114
S'001635'
p115
ag4
ag5
aF458.8
aF136.4
aF497.7
aF168.3
aa(lp116
aF0.89
aa(lp117
(lp118
S'004617'
p119
ag4
ag5
aF137.6
aF180.6
aF243.4
aF260.0
aa(lp120
aF0.889
aa(lp121
(lp122
S'000475'
p123
ag4
ag5
aF329.8
aF88.5
aF364.8
aF134.5
aa(lp124
aF0.872
aa(lp125
(lp126
S'004234'
p127
ag4
ag5
aF1.0
aF27.1
aF63.8
aF122.2
aa(lp128
aF0.871
aa(lp129
(lp130
S'005651'
p131
ag4
ag5
aF163.3
aF38.0
aF388.0
aF285.6
aa(lp132
aF0.87
aa(lp133
(lp134
S'004669'
p135
ag4
ag5
aF229.3
aF192.6
aF320.9
aF236.5
aa(lp136
aF0.87
aa(lp137
(lp138
S'007851'
p139
ag4
ag5
aF105.5
aF89.0
aF266.6
aF266.2
aa(lp140
(lp141
F111.0
aF91.0
aF408.0
aF278.0
aaaF0.854
aa(lp142
(lp143
S'005241'
p144
ag4
ag5
aF157.8
aF40.6
aF388.4
aF347.2
aa(lp145
aF0.842
aa(lp146
(lp147
S'007789'
p148
ag4
ag5
aF181.6
aF133.3
aF226.9
aF226.5
aa(lp149
aF0.842
aa(lp150
(lp151
S'006478'
p152
ag4
ag5
aF399.9
aF187.4
aF474.7
aF236.6
aa(lp153
aF0.84
aa(lp154
(lp155
S'002464'
p156
ag4
ag5
aF291.9
aF115.1
aF357.0
aF218.5
aa(lp157
aF0.84
aa(lp158
(lp159
S'005529'
p160
ag4
ag5
aF262.9
aF142.9
aF334.8
aF195.5
aa(lp161
aF0.836
aa(lp162
(lp163
S'000992'
p164
ag4
ag5
aF426.0
aF198.8
aF499.4
aF270.0
aa(lp165
aF0.834
aa(lp166
(lp167
S'006478'
p168
ag4
ag5
aF156.3
aF173.8
aF193.0
aF204.9
aa(lp169
aF0.833
aa(lp170
(lp171
S'006579'
p172
ag4
ag5
aF81.7
aF24.2
aF262.8
aF136.5
aa(lp173
(lp174
F144.0
aF5.0
aF237.0
aF131.0
aa(lp175
F12.0
aF37.0
aF149.0
aF127.0
aaaF0.818
aa(lp176
(lp177
S'006478'
p178
ag4
ag5
aF330.0
aF182.9
aF396.4
aF232.5
aa(lp179
aF0.809
aa(lp180
(lp181
S'004646'
p182
ag4
ag5
aF159.0
aF181.9
aF225.9
aF296.3
aa(lp183
aF0.808
aa(lp184
(lp185
S'008593'
p186
ag4
ag5
aF1.6
aF118.0
aF32.0
aF168.1
aa(lp187
aF0.807
aa(lp188
(lp189
S'007895'
p190
ag4
ag5
aF289.7
aF14.5
aF488.6
aF367.5
aa(lp191
aF0.801
aa(lp192
(lp193
S'000627'
p194
ag4
ag5
aF35.2
aF104.4
aF298.1
aF279.6
aa(lp195
aF0.779
aa(lp196
(lp197
S'003148'
p198
ag4
ag5
aF270.6
aF132.6
aF333.8
aF220.4
aa(lp199
aF0.776
aa(lp200
(lp201
S'008304'
p202
ag4
ag5
aF54.2
aF313.3
aF259.8
aF491.8
aa(lp203
(lp204
F125.0
aF162.0
aF371.0
aF490.0
aa(lp205
F2.0
aF123.0
aF252.0
aF486.0
aaaF0.766
aa(lp206
(lp207
S'006522'
p208
ag4
ag5
aF93.2
aF109.9
aF497.6
aF368.0
aa(lp209
aF0.765
aa(lp210
(lp211
S'007265'
p212
ag4
ag5
aF13.8
aF1.0
aF458.5
aF310.9
aa(lp213
aF0.753
aa(lp214
(lp215
S'004610'
p216
ag4
ag5
aF82.4
aF12.3
aF411.8
aF317.5
aa(lp217
aF0.727
aa(lp218
(lp219
S'003680'
p220
ag4
ag5
aF430.4
aF4.9
aF500.0
aF127.9
aa(lp221
aF0.722
aa(lp222
(lp223
S'009909'
p224
ag4
ag5
aF176.8
aF46.9
aF370.3
aF230.0
aa(lp225
(lp226
F37.0
aF42.0
aF355.0
aF339.0
aa(lp227
F307.0
aF170.0
aF375.0
aF239.0
aaaF0.72
aa(lp228
(lp229
S'006401'
p230
ag4
ag5
aF76.4
aF204.8
aF107.2
aF251.2
aa(lp231
aF0.711
aa(lp232
a(lp233
a(lp234
a(lp235
a(lp236
a(lp237
a(lp238
a(lp239
a(lp240
a(lp241
a(lp242
a(lp243
a(lp244
a(lp245
a(lp246
a(lp247
a(lp248
a(lp249
a(lp250
a(lp251
a(lp252
a(lp253
a(lp254
a(lp255
a(lp256
a(lp257
a(lp258
a(lp259
a(lp260
a(lp261
a(lp262
a(lp263
a(lp264
a(lp265
a(lp266
a(lp267
a(lp268
a(lp269
a(lp270
a(lp271
a(lp272
a(lp273
a(lp274
a(lp275
a(lp276
a(lp277
a(lp278
a(lp279
a(lp280
a(lp281
a(lp282
a(lp283
a(lp284
a(lp285
a(lp286
a(lp287
a(lp288
a(lp289
a(lp290
a(lp291
a(lp292
a(lp293
a(lp294
a(lp295
a(lp296
a(lp297
a(lp298
a(lp299
a(lp300
a(lp301
a(lp302
a(lp303
a(lp304
a(lp305
a(lp306
a(lp307
a(lp308
a(lp309
a(lp310
a(lp311
a(lp312
a(lp313
a(lp314
a(lp315
a(lp316
a(lp317
a(lp318
a(lp319
a(lp320
a(lp321
a(lp322
a(lp323
a(lp324
a(lp325
a(lp326
a(lp327
a(lp328
a(lp329
a(lp330
a(lp331
a(lp332
a(lp333
a(lp334
a(lp335
a(lp336
a(lp337
a(lp338
a(lp339
a(lp340
a(lp341
a(lp342
a(lp343
a(lp344
a(lp345
a(lp346
a(lp347
a(lp348
a(lp349
a(lp350
a(lp351
a(lp352
a(lp353
a(lp354
a(lp355
a(lp356
a(lp357
a(lp358
a(lp359
a(lp360
a(lp361
a(lp362
a(lp363
a(lp364
a(lp365
a(lp366
a(lp367
a(lp368
a(lp369
a(lp370
a(lp371
a(lp372
a(lp373
a(lp374
a(lp375
a(lp376
a(lp377
a(lp378
a(lp379
a(lp380
a(lp381
a(lp382
a(lp383
a(lp384
a(lp385
a(lp386
a(lp387
a(lp388
a(lp389
a(lp390
a(lp391
a(lp392
a(lp393
a(lp394
a(lp395
a(lp396
a(lp397
a(lp398
a(lp399
a(lp400
a(lp401
a(lp402
a(lp403
a(lp404
a(lp405
a(lp406
a(lp407
a(lp408
a(lp409
a(lp410
a(lp411
a(lp412
a(lp413
a(lp414
a(lp415
a(lp416
a(lp417
a(lp418
a(lp419
a(lp420
a(lp421
a(lp422
a(lp423
a(lp424
a(lp425
a(lp426
a(lp427
a(lp428
a.