(lp0
(lp1
(lp2
S'004055'
p3
aS'diningtable'
p4
aS'err_lowIoU'
p5
aF1.0
aF245.3
aF352.5
aF500.0
aa(lp6
aF0.994
aa(lp7
(lp8
S'007652'
p9
ag4
ag5
aF26.3
aF192.1
aF489.7
aF333.0
aa(lp10
aF0.991
aa(lp11
(lp12
S'003725'
p13
ag4
ag5
aF3.1
aF163.9
aF473.0
aF375.0
aa(lp14
aF0.99
aa(lp15
(lp16
S'007531'
p17
ag4
ag5
aF30.3
aF143.9
aF473.0
aF375.0
aa(lp18
aF0.984
aa(lp19
(lp20
S'008778'
p21
ag4
ag5
aF12.5
aF1.0
aF500.0
aF375.0
aa(lp22
aF0.979
aa(lp23
(lp24
S'006630'
p25
ag4
ag5
aF52.3
aF177.9
aF500.0
aF375.0
aa(lp26
aF0.976
aa(lp27
(lp28
S'002035'
p29
ag4
ag5
aF28.1
aF118.5
aF465.9
aF375.0
aa(lp30
aF0.968
aa(lp31
(lp32
S'002788'
p33
ag4
ag5
aF10.4
aF128.8
aF324.3
aF328.3
aa(lp34
(lp35
F52.0
aF142.0
aF249.0
aF272.0
aa(lp36
F5.0
aF114.0
aF129.0
aF176.0
aa(lp37
F198.0
aF109.0
aF274.0
aF150.0
aaaF0.967
aa(lp38
(lp39
S'008686'
p40
ag4
ag5
aF22.0
aF139.0
aF484.3
aF375.0
aa(lp41
aF0.962
aa(lp42
(lp43
S'009452'
p44
ag4
ag5
aF252.6
aF193.0
aF424.3
aF315.6
aa(lp45
aF0.959
aa(lp46
(lp47
S'008239'
p48
ag4
ag5
aF22.6
aF236.5
aF500.0
aF375.0
aa(lp49
aF0.956
aa(lp50
(lp51
S'008162'
p52
ag4
ag5
aF1.0
aF152.0
aF455.1
aF374.5
aa(lp53
aF0.949
aa(lp54
(lp55
S'000178'
p56
ag4
ag5
aF1.0
aF128.4
aF497.3
aF375.0
aa(lp57
aF0.944
aa(lp58
(lp59
S'004311'
p60
ag4
ag5
aF187.2
aF213.6
aF500.0
aF497.0
aa(lp61
aF0.938
aa(lp62
(lp63
S'005555'
p64
ag4
ag5
aF161.4
aF219.1
aF483.8
aF375.0
aa(lp65
aF0.934
aa(lp66
(lp67
S'004166'
p68
ag4
ag5
aF280.1
aF233.0
aF404.9
aF332.0
aa(lp69
(lp70
F234.0
aF204.0
aF500.0
aF332.0
aaaF0.923
aa(lp71
(lp72
S'001139'
p73
ag4
ag5
aF41.1
aF122.9
aF360.7
aF363.8
aa(lp74
aF0.918
aa(lp75
(lp76
S'006010'
p77
ag4
ag5
aF57.8
aF185.6
aF282.1
aF293.7
aa(lp78
(lp79
F117.0
aF182.0
aF242.0
aF268.0
aaaF0.914
aa(lp80
(lp81
S'004197'
p82
ag4
ag5
aF1.0
aF215.8
aF439.4
aF331.2
aa(lp83
aF0.913
aa(lp84
(lp85
S'009854'
p86
ag4
ag5
aF22.4
aF174.2
aF266.1
aF304.2
aa(lp87
(lp88
F327.0
aF130.0
aF429.0
aF173.0
aa(lp89
F68.0
aF158.0
aF219.0
aF275.0
aa(lp90
F148.0
aF127.0
aF212.0
aF160.0
aaaF0.911
aa(lp91
(lp92
S'009888'
p93
ag4
ag5
aF1.0
aF238.6
aF489.1
aF375.0
aa(lp94
aF0.907
aa(lp95
(lp96
S'008153'
p97
ag4
ag5
aF189.4
aF267.3
aF375.0
aF500.0
aa(lp98
(lp99
F2.0
aF274.0
aF371.0
aF500.0
aaaF0.904
aa(lp100
(lp101
S'004250'
p102
ag4
ag5
aF36.3
aF145.8
aF337.0
aF475.9
aa(lp103
(lp104
F151.0
aF133.0
aF243.0
aF161.0
aa(lp105
F126.0
aF159.0
aF272.0
aF228.0
aa(lp106
F79.0
aF224.0
aF298.0
aF332.0
aa(lp107
F27.0
aF325.0
aF358.0
aF480.0
aa(lp108
F166.0
aF108.0
aF233.0
aF118.0
aa(lp109
F160.0
aF116.0
aF236.0
aF140.0
aa(lp110
F10.0
aF108.0
aF49.0
aF141.0
aa(lp111
F54.0
aF98.0
aF75.0
aF125.0
aa(lp112
F99.0
aF96.0
aF145.0
aF130.0
aaaF0.903
aa(lp113
(lp114
S'007203'
p115
ag4
ag5
aF36.5
aF199.7
aF429.8
aF375.0
aa(lp116
aF0.901
aa(lp117
(lp118
S'008347'
p119
ag4
ag5
aF54.2
aF207.3
aF408.0
aF333.0
aa(lp120
aF0.9
aa(lp121
(lp122
S'008014'
p123
ag4
ag5
aF1.0
aF211.1
aF322.9
aF493.7
aa(lp124
aF0.9
aa(lp125
(lp126
S'009402'
p127
ag4
ag5
aF216.1
aF199.8
aF500.0
aF333.0
aa(lp128
aF0.899
aa(lp129
(lp130
S'009075'
p131
ag4
ag5
aF33.9
aF223.8
aF466.7
aF371.6
aa(lp132
aF0.895
aa(lp133
(lp134
S'004469'
p135
ag4
ag5
aF64.5
aF167.6
aF375.2
aF375.0
aa(lp136
(lp137
F43.0
aF298.0
aF363.0
aF375.0
aa(lp138
F96.0
aF188.0
aF345.0
aF316.0
aa(lp139
F185.0
aF114.0
aF298.0
aF189.0
aaaF0.885
aa(lp140
(lp141
S'009715'
p142
ag4
ag5
aF366.0
aF207.8
aF500.0
aF363.5
aa(lp143
aF0.879
aa(lp144
(lp145
S'004855'
p146
ag4
ag5
aF86.4
aF235.2
aF350.2
aF375.0
aa(lp147
aF0.877
aa(lp148
(lp149
S'005976'
p150
ag4
ag5
aF94.6
aF193.7
aF389.6
aF332.9
aa(lp151
aF0.876
aa(lp152
(lp153
S'002813'
p154
ag4
ag5
aF4.3
aF174.3
aF435.9
aF373.0
aa(lp155
aF0.869
aa(lp156
(lp157
S'005628'
p158
ag4
ag5
aF18.1
aF63.4
aF303.7
aF218.6
aa(lp159
(lp160
F1.0
aF46.0
aF500.0
aF375.0
aaaF0.868
aa(lp161
(lp162
S'001253'
p163
ag4
ag5
aF19.5
aF320.2
aF375.0
aF500.0
aa(lp164
aF0.864
aa(lp165
(lp166
S'004892'
p167
ag4
ag5
aF106.3
aF179.6
aF345.6
aF276.6
aa(lp168
(lp169
F1.0
aF279.0
aF443.0
aF375.0
aa(lp170
F2.0
aF179.0
aF441.0
aF375.0
aaaF0.858
aa(lp171
(lp172
S'008196'
p173
ag4
ag5
aF33.6
aF212.3
aF471.8
aF371.1
aa(lp174
aF0.856
aa(lp175
(lp176
S'009514'
p177
ag4
ag5
aF128.4
aF166.3
aF390.9
aF299.4
aa(lp178
(lp179
F217.0
aF159.0
aF358.0
aF287.0
aaaF0.846
aa(lp180
(lp181
S'003561'
p182
ag4
aS'err_repeat'
p183
aF27.8
aF260.2
aF333.0
aF500.0
aa(lp184
(lp185
F2.0
aF125.0
aF333.0
aF500.0
aaaF0.838
aa(lp186
(lp187
S'002388'
p188
ag4
ag5
aF1.1
aF214.8
aF489.7
aF375.0
aa(lp189
aF0.837
aa(lp190
(lp191
S'008947'
p192
ag4
ag5
aF92.2
aF251.0
aF500.0
aF375.0
aa(lp193
aF0.837
aa(lp194
(lp195
S'002885'
p196
ag4
ag5
aF6.5
aF191.0
aF257.6
aF375.0
aa(lp197
aF0.822
aa(lp198
(lp199
S'008045'
p200
ag4
ag5
aF33.4
aF66.8
aF489.0
aF379.0
aa(lp201
(lp202
F235.0
aF2.0
aF463.0
aF144.0
aaaF0.819
aa(lp203
(lp204
S'007332'
p205
ag4
ag5
aF176.1
aF234.7
aF479.4
aF370.6
aa(lp206
aF0.818
aa(lp207
(lp208
S'002674'
p209
ag4
ag5
aF168.5
aF314.8
aF450.3
aF374.1
aa(lp210
(lp211
F239.0
aF325.0
aF386.0
aF375.0
aa(lp212
F221.0
aF300.0
aF298.0
aF336.0
aaaF0.813
aa(lp213
(lp214
S'004567'
p215
ag4
ag5
aF257.6
aF261.4
aF500.0
aF375.0
aa(lp216
aF0.812
aa(lp217
(lp218
S'000839'
p219
ag4
ag5
aF113.2
aF161.2
aF353.6
aF365.9
aa(lp220
aF0.804
aa(lp221
(lp222
S'002777'
p223
ag4
ag5
aF93.9
aF211.5
aF288.0
aF325.5
aa(lp224
aF0.804
aa(lp225
(lp226
S'000414'
p227
ag4
ag5
aF29.3
aF208.9
aF461.9
aF375.0
aa(lp228
aF0.802
aa(lp229
(lp230
S'000397'
p231
ag4
ag5
aF1.2
aF275.9
aF187.9
aF486.8
aa(lp232
aF0.802
aa(lp233
(lp234
S'006293'
p235
ag4
ag5
aF48.4
aF145.5
aF400.2
aF332.6
aa(lp236
aF0.801
aa(lp237
(lp238
S'008851'
p239
ag4
ag5
aF35.8
aF179.9
aF462.3
aF373.7
aa(lp240
aF0.8
aa(lp241
(lp242
S'001817'
p243
ag4
ag5
aF12.7
aF246.1
aF333.0
aF500.0
aa(lp244
aF0.796
aa(lp245
(lp246
S'000385'
p247
ag4
ag5
aF28.7
aF190.5
aF296.6
aF375.0
aa(lp248
aF0.794
aa(lp249
(lp250
S'003540'
p251
ag4
ag5
aF37.2
aF40.3
aF485.2
aF375.0
aa(lp252
aF0.792
aa(lp253
(lp254
S'001609'
p255
ag4
ag5
aF27.0
aF120.1
aF353.4
aF242.1
aa(lp256
(lp257
F3.0
aF120.0
aF374.0
aF500.0
aaaF0.782
aa(lp258
(lp259
S'009140'
p260
ag4
ag5
aF119.5
aF252.1
aF381.1
aF327.0
aa(lp261
aF0.781
aa(lp262
(lp263
S'007832'
p264
ag4
ag5
aF62.6
aF180.1
aF425.1
aF369.4
aa(lp265
aF0.777
aa(lp266
(lp267
S'000247'
p268
ag4
ag5
aF18.3
aF358.0
aF363.6
aF498.4
aa(lp269
aF0.775
aa(lp270
(lp271
S'009385'
p272
ag4
ag5
aF17.0
aF189.9
aF282.3
aF366.9
aa(lp273
(lp274
F5.0
aF25.0
aF500.0
aF375.0
aaaF0.77
aa(lp275
(lp276
S'009171'
p277
ag4
ag5
aF256.8
aF191.7
aF376.2
aF375.0
aa(lp278
(lp279
F3.0
aF192.0
aF498.0
aF375.0
aaaF0.769
aa(lp280
a(lp281
a(lp282
a(lp283
a(lp284
a(lp285
a(lp286
a(lp287
a(lp288
a(lp289
a(lp290
a(lp291
a(lp292
a(lp293
a(lp294
a(lp295
a(lp296
a(lp297
a(lp298
a(lp299
a(lp300
a(lp301
a(lp302
a(lp303
a(lp304
a(lp305
a(lp306
a(lp307
a(lp308
a(lp309
a(lp310
a(lp311
a(lp312
a(lp313
a(lp314
a(lp315
a(lp316
a(lp317
a(lp318
a(lp319
a(lp320
a(lp321
a(lp322
a(lp323
a(lp324
a(lp325
a(lp326
a(lp327
a(lp328
a(lp329
a(lp330
a(lp331
a(lp332
a(lp333
a(lp334
a(lp335
a(lp336
a(lp337
a(lp338
a(lp339
a(lp340
a(lp341
a(lp342
a(lp343
a(lp344
a(lp345
a(lp346
a(lp347
a(lp348
a(lp349
a(lp350
a(lp351
a(lp352
a(lp353
a(lp354
a(lp355
a(lp356
a(lp357
a(lp358
a(lp359
a(lp360
a(lp361
a(lp362
a(lp363
a(lp364
a(lp365
a(lp366
a(lp367
a(lp368
a(lp369
a(lp370
a(lp371
a(lp372
a(lp373
a(lp374
a(lp375
a(lp376
a(lp377
a(lp378
a(lp379
a(lp380
a(lp381
a(lp382
a(lp383
a(lp384
a(lp385
a(lp386
a(lp387
a(lp388
a(lp389
a(lp390
a(lp391
a(lp392
a(lp393
a(lp394
a(lp395
a(lp396
a(lp397
a(lp398
a(lp399
a(lp400
a(lp401
a(lp402
a(lp403
a(lp404
a(lp405
a(lp406
a(lp407
a(lp408
a(lp409
a(lp410
a(lp411
a(lp412
a(lp413
a(lp414
a(lp415
a(lp416
a(lp417
a(lp418
a(lp419
a(lp420
a(lp421
a(lp422
a(lp423
a(lp424
a.