(lp0
(lp1
(lp2
S'002852'
p3
aS'dog'
p4
aS'err_lowIoU'
p5
aF33.9
aF93.7
aF464.5
aF348.9
aa(lp6
(lp7
F38.0
aF57.0
aF298.0
aF157.0
aa(lp8
F68.0
aF147.0
aF458.0
aF237.0
aa(lp9
F22.0
aF202.0
aF387.0
aF361.0
aaaF0.996
aa(lp10
(lp11
S'001639'
p12
ag4
ag5
aF52.3
aF87.1
aF312.6
aF334.0
aa(lp13
(lp14
F128.0
aF52.0
aF500.0
aF334.0
aa(lp15
F80.0
aF187.0
aF360.0
aF334.0
aaaF0.994
aa(lp16
(lp17
S'000205'
p18
ag4
ag5
aF98.5
aF257.6
aF228.5
aF352.9
aa(lp19
(lp20
F83.0
aF277.0
aF241.0
aF401.0
aaaF0.988
aa(lp21
(lp22
S'003728'
p23
ag4
ag5
aF209.1
aF138.6
aF296.0
aF286.1
aa(lp24
(lp25
F135.0
aF131.0
aF285.0
aF285.0
aaaF0.984
aa(lp26
(lp27
S'008827'
p28
ag4
ag5
aF87.3
aF171.4
aF180.9
aF251.2
aa(lp29
(lp30
F211.0
aF168.0
aF403.0
aF272.0
aa(lp31
F17.0
aF139.0
aF174.0
aF254.0
aaaF0.984
aa(lp32
(lp33
S'003418'
p34
ag4
ag5
aF80.4
aF363.6
aF172.3
aF443.9
aa(lp35
(lp36
F151.0
aF259.0
aF205.0
aF384.0
aa(lp37
F1.0
aF355.0
aF182.0
aF447.0
aaaF0.983
aa(lp38
(lp39
S'001220'
p40
ag4
ag5
aF105.5
aF128.4
aF407.5
aF289.7
aa(lp41
(lp42
F1.0
aF127.0
aF385.0
aF375.0
aaaF0.975
aa(lp43
(lp44
S'002286'
p45
ag4
ag5
aF5.1
aF25.7
aF237.1
aF231.4
aa(lp46
(lp47
F15.0
aF29.0
aF327.0
aF324.0
aa(lp48
F226.0
aF121.0
aF500.0
aF324.0
aaaF0.972
aa(lp49
(lp50
S'001984'
p51
ag4
ag5
aF38.6
aF83.0
aF433.9
aF356.3
aa(lp52
(lp53
F15.0
aF1.0
aF288.0
aF373.0
aa(lp54
F226.0
aF105.0
aF387.0
aF319.0
aa(lp55
F352.0
aF107.0
aF500.0
aF372.0
aaaF0.969
aa(lp56
(lp57
S'009103'
p58
ag4
ag5
aF289.8
aF1.0
aF500.0
aF279.8
aa(lp59
(lp60
F75.0
aF1.0
aF500.0
aF261.0
aa(lp61
F135.0
aF133.0
aF370.0
aF293.0
aaaF0.968
aa(lp62
(lp63
S'003693'
p64
ag4
ag5
aF30.8
aF118.7
aF332.8
aF335.1
aa(lp65
(lp66
F115.0
aF162.0
aF268.0
aF320.0
aa(lp67
F223.0
aF127.0
aF332.0
aF284.0
aa(lp68
F124.0
aF42.0
aF197.0
aF111.0
aa(lp69
F20.0
aF109.0
aF204.0
aF228.0
aa(lp70
F134.0
aF104.0
aF219.0
aF164.0
aaaF0.967
aa(lp71
(lp72
S'008781'
p73
ag4
ag5
aF152.0
aF40.4
aF412.4
aF323.1
aa(lp74
(lp75
F2.0
aF21.0
aF486.0
aF330.0
aaaF0.967
aa(lp76
(lp77
S'001026'
p78
ag4
ag5
aF204.8
aF52.8
aF278.1
aF97.4
aa(lp79
(lp80
F209.0
aF54.0
aF333.0
aF118.0
aa(lp81
F70.0
aF238.0
aF217.0
aF404.0
aaaF0.962
aa(lp82
(lp83
S'002852'
p84
ag4
ag5
aF189.2
aF61.3
aF490.6
aF226.9
aa(lp85
(lp86
F38.0
aF57.0
aF298.0
aF157.0
aa(lp87
F68.0
aF147.0
aF458.0
aF237.0
aa(lp88
F22.0
aF202.0
aF387.0
aF361.0
aaaF0.961
aa(lp89
(lp90
S'009802'
p91
ag4
ag5
aF143.0
aF121.8
aF254.3
aF231.9
aa(lp92
(lp93
F47.0
aF218.0
aF190.0
aF375.0
aa(lp94
F76.0
aF113.0
aF264.0
aF255.0
aaaF0.96
aa(lp95
(lp96
S'007587'
p97
ag4
ag5
aF92.3
aF67.2
aF483.9
aF386.1
aa(lp98
aF0.957
aa(lp99
(lp100
S'006354'
p101
ag4
ag5
aF135.6
aF85.0
aF430.5
aF332.0
aa(lp102
(lp103
F288.0
aF139.0
aF406.0
aF291.0
aa(lp104
F2.0
aF89.0
aF373.0
aF250.0
aaaF0.953
aa(lp105
(lp106
S'002535'
p107
ag4
ag5
aF121.1
aF43.4
aF390.4
aF247.4
aa(lp108
(lp109
F9.0
aF41.0
aF500.0
aF290.0
aaaF0.952
aa(lp110
(lp111
S'003728'
p112
ag4
ag5
aF19.4
aF143.0
aF311.8
aF303.5
aa(lp113
(lp114
F135.0
aF131.0
aF285.0
aF285.0
aaaF0.952
aa(lp115
(lp116
S'006211'
p117
ag4
ag5
aF143.3
aF238.8
aF198.3
aF282.5
aa(lp118
aF0.941
aa(lp119
(lp120
S'000025'
p121
ag4
ag5
aF45.5
aF154.7
aF415.3
aF375.0
aa(lp122
aF0.94
aa(lp123
(lp124
S'000025'
p125
ag4
ag5
aF7.2
aF71.1
aF58.6
aF260.8
aa(lp126
aF0.937
aa(lp127
(lp128
S'004179'
p129
ag4
ag5
aF168.5
aF140.3
aF268.4
aF314.3
aa(lp130
aF0.936
aa(lp131
(lp132
S'007312'
p133
ag4
ag5
aF222.7
aF1.0
aF500.0
aF325.3
aa(lp134
(lp135
F2.0
aF4.0
aF498.0
aF375.0
aa(lp136
F68.0
aF76.0
aF352.0
aF300.0
aaaF0.933
aa(lp137
(lp138
S'001549'
p139
ag4
ag5
aF90.6
aF84.9
aF232.2
aF282.1
aa(lp140
(lp141
F9.0
aF84.0
aF226.0
aF333.0
aaaF0.93
aa(lp142
(lp143
S'003411'
p144
ag4
ag5
aF1.0
aF19.3
aF389.3
aF375.0
aa(lp145
aF0.925
aa(lp146
(lp147
S'004042'
p148
ag4
ag5
aF23.4
aF14.6
aF268.9
aF316.8
aa(lp149
aF0.918
aa(lp150
(lp151
S'002587'
p152
ag4
ag5
aF106.1
aF80.9
aF232.2
aF246.8
aa(lp153
(lp154
F1.0
aF54.0
aF107.0
aF289.0
aa(lp155
F172.0
aF88.0
aF373.0
aF359.0
aa(lp156
F92.0
aF89.0
aF327.0
aF263.0
aa(lp157
F360.0
aF48.0
aF500.0
aF177.0
aa(lp158
F435.0
aF88.0
aF500.0
aF291.0
aaaF0.914
aa(lp159
(lp160
S'007962'
p161
ag4
ag5
aF53.6
aF171.5
aF214.8
aF361.0
aa(lp162
(lp163
F72.0
aF163.0
aF397.0
aF375.0
aaaF0.912
aa(lp164
(lp165
S'000722'
p166
ag4
ag5
aF175.4
aF67.9
aF491.7
aF345.3
aa(lp167
(lp168
F189.0
aF88.0
aF366.0
aF266.0
aaaF0.912
aa(lp169
(lp170
S'007596'
p171
ag4
ag5
aF55.3
aF77.7
aF227.0
aF181.9
aa(lp172
(lp173
F297.0
aF96.0
aF361.0
aF153.0
aaaF0.91
aa(lp174
(lp175
S'001275'
p176
ag4
ag5
aF342.7
aF117.1
aF396.0
aF169.6
aa(lp177
aF0.906
aa(lp178
(lp179
S'002408'
p180
ag4
ag5
aF33.3
aF124.8
aF321.7
aF329.7
aa(lp181
(lp182
F70.0
aF48.0
aF493.0
aF332.0
aaaF0.906
aa(lp183
(lp184
S'000025'
p185
ag4
ag5
aF59.6
aF116.5
aF235.0
aF252.2
aa(lp186
aF0.899
aa(lp187
(lp188
S'000205'
p189
ag4
ag5
aF125.2
aF267.1
aF287.9
aF467.4
aa(lp190
(lp191
F83.0
aF277.0
aF241.0
aF401.0
aaaF0.897
aa(lp192
(lp193
S'007081'
p194
ag4
ag5
aF191.0
aF99.4
aF500.0
aF375.0
aa(lp195
(lp196
F152.0
aF84.0
aF281.0
aF315.0
aaaF0.896
aa(lp197
(lp198
S'002464'
p199
ag4
ag5
aF287.9
aF142.3
aF348.7
aF223.2
aa(lp200
(lp201
F296.0
aF156.0
aF331.0
aF227.0
aa(lp202
F292.0
aF110.0
aF366.0
aF199.0
aaaF0.894
aa(lp203
(lp204
S'004492'
p205
ag4
ag5
aF43.1
aF26.2
aF424.2
aF375.0
aa(lp206
aF0.881
aa(lp207
(lp208
S'006039'
p209
ag4
ag5
aF185.1
aF62.1
aF250.7
aF130.0
aa(lp210
(lp211
F195.0
aF50.0
aF369.0
aF181.0
aaaF0.875
aa(lp212
(lp213
S'005193'
p214
ag4
ag5
aF128.3
aF128.6
aF369.4
aF315.2
aa(lp215
(lp216
F123.0
aF138.0
aF500.0
aF365.0
aaaF0.873
aa(lp217
(lp218
S'009569'
p219
ag4
ag5
aF207.8
aF214.5
aF421.5
aF363.6
aa(lp220
aF0.871
aa(lp221
(lp222
S'008795'
p223
ag4
ag5
aF1.0
aF43.7
aF426.2
aF322.2
aa(lp224
aF0.864
aa(lp225
(lp226
S'008343'
p227
ag4
ag5
aF20.2
aF75.9
aF330.5
aF493.7
aa(lp228
aF0.86
aa(lp229
(lp230
S'001123'
p231
ag4
aS'err_repeat'
p232
aF177.5
aF94.9
aF388.4
aF313.3
aa(lp233
(lp234
F196.0
aF27.0
aF440.0
aF299.0
aaaF0.858
aa(lp235
(lp236
S'007198'
p237
ag4
ag5
aF69.0
aF49.3
aF287.2
aF307.7
aa(lp238
aF0.852
aa(lp239
(lp240
S'000551'
p241
ag4
ag5
aF90.3
aF67.7
aF482.1
aF362.2
aa(lp242
(lp243
F288.0
aF143.0
aF497.0
aF330.0
aa(lp244
F2.0
aF184.0
aF312.0
aF378.0
aa(lp245
F74.0
aF12.0
aF294.0
aF209.0
aaaF0.852
aa(lp246
(lp247
S'008340'
p248
ag4
ag5
aF74.0
aF156.9
aF452.0
aF375.0
aa(lp249
(lp250
F1.0
aF1.0
aF453.0
aF374.0
aaaF0.851
aa(lp251
(lp252
S'006991'
p253
ag4
ag5
aF194.6
aF109.7
aF317.3
aF228.1
aa(lp254
(lp255
F201.0
aF111.0
aF469.0
aF300.0
aaaF0.846
aa(lp256
(lp257
S'004006'
p258
ag4
ag5
aF312.3
aF88.7
aF355.9
aF141.2
aa(lp259
aF0.842
aa(lp260
(lp261
S'008959'
p262
ag4
ag5
aF123.1
aF75.6
aF299.9
aF375.0
aa(lp263
aF0.836
aa(lp264
(lp265
S'009814'
p266
ag4
ag5
aF135.1
aF59.0
aF349.6
aF347.6
aa(lp267
aF0.835
aa(lp268
(lp269
S'004945'
p270
ag4
ag5
aF152.1
aF52.2
aF477.8
aF273.5
aa(lp271
(lp272
F121.0
aF41.0
aF357.0
aF357.0
aaaF0.822
aa(lp273
(lp274
S'003728'
p275
ag4
ag5
aF196.6
aF150.5
aF467.2
aF316.5
aa(lp276
(lp277
F135.0
aF131.0
aF285.0
aF285.0
aaaF0.821
aa(lp278
(lp279
S'000737'
p280
ag4
ag5
aF104.9
aF231.4
aF137.8
aF280.0
aa(lp281
aF0.821
aa(lp282
(lp283
S'009907'
p284
ag4
ag5
aF82.7
aF110.2
aF309.5
aF299.5
aa(lp285
(lp286
F2.0
aF122.0
aF313.0
aF458.0
aaaF0.816
aa(lp287
(lp288
S'003841'
p289
ag4
ag5
aF1.0
aF17.5
aF426.5
aF434.7
aa(lp290
aF0.814
aa(lp291
(lp292
S'004343'
p293
ag4
ag5
aF113.0
aF94.1
aF262.0
aF304.5
aa(lp294
(lp295
F82.0
aF36.0
aF496.0
aF283.0
aaaF0.812
aa(lp296
(lp297
S'008740'
p298
ag4
ag5
aF50.3
aF18.2
aF326.5
aF333.0
aa(lp299
aF0.806
aa(lp300
(lp301
S'004804'
p302
ag4
ag5
aF34.4
aF195.7
aF94.8
aF235.2
aa(lp303
aF0.804
aa(lp304
(lp305
S'009786'
p306
ag4
ag5
aF102.4
aF45.5
aF380.1
aF232.4
aa(lp307
(lp308
F266.0
aF1.0
aF449.0
aF280.0
aaaF0.797
aa(lp309
(lp310
S'004357'
p311
ag4
ag5
aF429.7
aF272.0
aF500.0
aF330.8
aa(lp312
aF0.796
aa(lp313
(lp314
S'004617'
p315
ag4
ag5
aF328.5
aF208.4
aF381.8
aF253.1
aa(lp316
aF0.794
aa(lp317
(lp318
S'008889'
p319
ag4
ag5
aF222.5
aF82.0
aF381.0
aF269.6
aa(lp320
(lp321
F93.0
aF89.0
aF342.0
aF332.0
aaaF0.788
aa(lp322
(lp323
S'004465'
p324
ag4
ag5
aF220.9
aF212.1
aF319.6
aF319.1
aa(lp325
(lp326
F213.0
aF186.0
aF374.0
aF340.0
aaaF0.786
aa(lp327
(lp328
S'005580'
p329
ag4
ag5
aF22.2
aF58.9
aF385.9
aF364.8
aa(lp330
aF0.784
aa(lp331
(lp332
S'004529'
p333
ag4
ag5
aF241.9
aF47.9
aF487.1
aF187.0
aa(lp334
aF0.774
aa(lp335
(lp336
S'009556'
p337
ag4
ag5
aF60.0
aF147.0
aF180.3
aF269.5
aa(lp338
(lp339
F3.0
aF146.0
aF178.0
aF374.0
aaaF0.773
aa(lp340
(lp341
S'000616'
p342
ag4
ag5
aF118.2
aF99.2
aF313.1
aF366.9
aa(lp343
aF0.772
aa(lp344
(lp345
S'000025'
p346
ag4
ag5
aF9.5
aF79.5
aF73.0
aF138.5
aa(lp347
aF0.766
aa(lp348
(lp349
S'008577'
p350
ag4
ag5
aF55.0
aF17.7
aF269.6
aF375.0
aa(lp351
aF0.763
aa(lp352
(lp353
S'005651'
p354
ag4
ag5
aF10.7
aF25.3
aF375.7
aF327.2
aa(lp355
(lp356
F231.0
aF82.0
aF382.0
aF275.0
aaaF0.763
aa(lp357
(lp358
S'001217'
p359
ag4
ag5
aF46.2
aF40.7
aF375.6
aF342.0
aa(lp360
(lp361
F31.0
aF142.0
aF224.0
aF330.0
aa(lp362
F237.0
aF94.0
aF500.0
aF200.0
aa(lp363
F274.0
aF259.0
aF475.0
aF375.0
aa(lp364
F201.0
aF160.0
aF500.0
aF326.0
aaaF0.76
aa(lp365
(lp366
S'002573'
p367
ag4
ag5
aF256.1
aF132.4
aF318.5
aF182.6
aa(lp368
aF0.756
aa(lp369
(lp370
S'000025'
p371
ag4
ag5
aF86.5
aF47.2
aF158.0
aF113.3
aa(lp372
aF0.752
aa(lp373
(lp374
S'009569'
p375
ag4
ag5
aF108.4
aF174.5
aF223.6
aF307.8
aa(lp376
aF0.741
aa(lp377
(lp378
S'007625'
p379
ag4
ag5
aF136.7
aF163.9
aF250.9
aF297.1
aa(lp380
(lp381
F253.0
aF135.0
aF314.0
aF250.0
aa(lp382
F207.0
aF178.0
aF266.0
aF272.0
aaaF0.74
aa(lp383
(lp384
S'007596'
p385
ag4
ag5
aF334.6
aF97.2
aF435.0
aF180.7
aa(lp386
(lp387
F297.0
aF96.0
aF361.0
aF153.0
aaaF0.73
aa(lp388
(lp389
S'006728'
p390
ag4
ag5
aF236.1
aF84.8
aF489.5
aF372.9
aa(lp391
aF0.728
aa(lp392
(lp393
S'003955'
p394
ag4
ag5
aF127.4
aF197.6
aF275.1
aF375.0
aa(lp395
aF0.726
aa(lp396
(lp397
S'001592'
p398
ag4
ag5
aF214.6
aF13.1
aF492.4
aF239.0
aa(lp399
aF0.697
aa(lp400
(lp401
S'009578'
p402
ag4
ag5
aF65.4
aF38.2
aF462.8
aF304.4
aa(lp403
aF0.697
aa(lp404
(lp405
S'007055'
p406
ag4
ag5
aF50.7
aF67.3
aF453.4
aF366.2
aa(lp407
aF0.687
aa(lp408
(lp409
S'007028'
p410
ag4
ag5
aF131.2
aF91.8
aF340.5
aF359.1
aa(lp411
aF0.682
aa(lp412
(lp413
S'003174'
p414
ag4
ag5
aF1.0
aF58.9
aF214.6
aF320.0
aa(lp415
(lp416
F1.0
aF35.0
aF482.0
aF297.0
aaaF0.677
aa(lp417
(lp418
S'006915'
p419
ag4
ag5
aF376.5
aF165.2
aF455.2
aF253.2
aa(lp420
(lp421
F87.0
aF50.0
aF371.0
aF313.0
aa(lp422
F279.0
aF181.0
aF463.0
aF375.0
aaaF0.676
aa(lp423
(lp424
S'006832'
p425
ag4
ag5
aF72.1
aF27.7
aF384.5
aF333.0
aa(lp426
aF0.67
aa(lp427
(lp428
S'007941'
p429
ag4
ag5
aF21.1
aF1.3
aF365.0
aF476.6
aa(lp430
aF0.668
aa(lp431
(lp432
S'004419'
p433
ag4
ag5
aF186.0
aF119.6
aF318.3
aF217.6
aa(lp434
(lp435
F197.0
aF120.0
aF455.0
aF289.0
aa(lp436
F189.0
aF181.0
aF454.0
aF375.0
aaaF0.667
aa(lp437
(lp438
S'002341'
p439
ag4
ag5
aF55.4
aF80.1
aF125.4
aF165.9
aa(lp440
(lp441
F22.0
aF88.0
aF130.0
aF222.0
aa(lp442
F143.0
aF168.0
aF254.0
aF250.0
aaaF0.662
aa(lp443
(lp444
S'005012'
p445
ag4
ag5
aF109.3
aF345.1
aF210.6
aF494.2
aa(lp446
(lp447
F2.0
aF277.0
aF147.0
aF500.0
aaaF0.66
aa(lp448
(lp449
S'004266'
p450
ag4
ag5
aF25.6
aF66.0
aF461.6
aF341.8
aa(lp451
aF0.655
aa(lp452
(lp453
S'003427'
p454
ag4
ag5
aF82.5
aF18.3
aF288.9
aF202.4
aa(lp455
aF0.642
aa(lp456
(lp457
S'007221'
p458
ag4
ag5
aF13.3
aF11.2
aF445.7
aF356.5
aa(lp459
aF0.634
aa(lp460
(lp461
S'003371'
p462
ag4
ag5
aF19.2
aF9.0
aF310.9
aF342.0
aa(lp463
aF0.633
aa(lp464
a(lp465
a(lp466
a(lp467
a(lp468
a(lp469
a(lp470
a(lp471
a(lp472
a(lp473
a(lp474
a(lp475
a(lp476
a(lp477
a(lp478
a(lp479
a(lp480
a(lp481
a(lp482
a(lp483
a(lp484
a(lp485
a(lp486
a(lp487
a(lp488
a(lp489
a(lp490
a(lp491
a(lp492
a(lp493
a(lp494
a(lp495
a(lp496
a(lp497
a(lp498
a(lp499
a(lp500
a(lp501
a(lp502
a(lp503
a(lp504
a(lp505
a(lp506
a(lp507
a(lp508
a(lp509
a(lp510
a(lp511
a(lp512
a(lp513
a(lp514
a(lp515
a(lp516
a(lp517
a(lp518
a(lp519
a(lp520
a(lp521
a(lp522
a(lp523
a(lp524
a(lp525
a(lp526
a(lp527
a(lp528
a(lp529
a(lp530
a(lp531
a(lp532
a(lp533
a(lp534
a(lp535
a(lp536
a(lp537
a(lp538
a(lp539
a(lp540
a(lp541
a(lp542
a(lp543
a(lp544
a(lp545
a(lp546
a(lp547
a(lp548
a(lp549
a(lp550
a(lp551
a(lp552
a(lp553
a(lp554
a(lp555
a(lp556
a(lp557
a(lp558
a(lp559
a(lp560
a(lp561
a(lp562
a(lp563
a(lp564
a(lp565
a(lp566
a(lp567
a(lp568
a(lp569
a(lp570
a(lp571
a(lp572
a(lp573
a(lp574
a(lp575
a(lp576
a(lp577
a(lp578
a(lp579
a(lp580
a(lp581
a(lp582
a(lp583
a(lp584
a(lp585
a(lp586
a(lp587
a(lp588
a(lp589
a(lp590
a(lp591
a(lp592
a(lp593
a(lp594
a(lp595
a(lp596
a(lp597
a(lp598
a(lp599
a(lp600
a(lp601
a(lp602
a(lp603
a(lp604
a(lp605
a(lp606
a(lp607
a(lp608
a(lp609
a(lp610
a(lp611
a(lp612
a(lp613
a(lp614
a(lp615
a(lp616
a(lp617
a(lp618
a(lp619
a(lp620
a(lp621
a(lp622
a(lp623
a(lp624
a(lp625
a(lp626
a(lp627
a(lp628
a(lp629
a(lp630
a(lp631
a(lp632
a(lp633
a(lp634
a(lp635
a(lp636
a(lp637
a(lp638
a(lp639
a(lp640
a(lp641
a(lp642
a(lp643
a(lp644
a(lp645
a(lp646
a(lp647
a(lp648
a(lp649
a(lp650
a(lp651
a(lp652
a(lp653
a(lp654
a(lp655
a(lp656
a(lp657
a(lp658
a(lp659
a(lp660
a(lp661
a(lp662
a(lp663
a(lp664
a(lp665
a(lp666
a(lp667
a(lp668
a(lp669
a(lp670
a(lp671
a(lp672
a(lp673
a(lp674
a(lp675
a(lp676
a(lp677
a(lp678
a(lp679
a(lp680
a(lp681
a(lp682
a(lp683
a(lp684
a(lp685
a(lp686
a(lp687
a(lp688
a(lp689
a(lp690
a(lp691
a(lp692
a(lp693
a(lp694
a(lp695
a(lp696
a(lp697
a(lp698
a(lp699
a(lp700
a(lp701
a(lp702
a(lp703
a(lp704
a(lp705
a(lp706
a(lp707
a(lp708
a(lp709
a(lp710
a(lp711
a(lp712
a(lp713
a(lp714
a(lp715
a(lp716
a(lp717
a(lp718
a(lp719
a(lp720
a(lp721
a(lp722
a(lp723
a(lp724
a(lp725
a(lp726
a(lp727
a(lp728
a(lp729
a(lp730
a(lp731
a(lp732
a(lp733
a(lp734
a(lp735
a(lp736
a(lp737
a(lp738
a(lp739
a(lp740
a(lp741
a(lp742
a(lp743
a(lp744
a(lp745
a(lp746
a(lp747
a(lp748
a(lp749
a(lp750
a(lp751
a(lp752
a(lp753
a(lp754
a(lp755
a(lp756
a(lp757
a(lp758
a(lp759
a(lp760
a(lp761
a(lp762
a(lp763
a(lp764
a(lp765
a(lp766
a(lp767
a(lp768
a(lp769
a(lp770
a(lp771
a(lp772
a(lp773
a(lp774
a(lp775
a(lp776
a(lp777
a(lp778
a(lp779
a(lp780
a(lp781
a(lp782
a(lp783
a(lp784
a(lp785
a(lp786
a(lp787
a(lp788
a(lp789
a(lp790
a(lp791
a(lp792
a(lp793
a(lp794
a(lp795
a(lp796
a(lp797
a(lp798
a(lp799
a(lp800
a(lp801
a(lp802
a(lp803
a(lp804
a(lp805
a(lp806
a(lp807
a(lp808
a(lp809
a(lp810
a(lp811
a(lp812
a(lp813
a(lp814
a(lp815
a(lp816
a(lp817
a(lp818
a(lp819
a(lp820
a(lp821
a(lp822
a(lp823
a(lp824
a(lp825
a(lp826
a(lp827
a(lp828
a(lp829
a(lp830
a(lp831
a(lp832
a(lp833
a(lp834
a(lp835
a(lp836
a(lp837
a(lp838
a(lp839
a(lp840
a(lp841
a(lp842
a(lp843
a(lp844
a(lp845
a(lp846
a(lp847
a(lp848
a(lp849
a(lp850
a(lp851
a(lp852
a(lp853
a(lp854
a(lp855
a(lp856
a(lp857
a(lp858
a.