(lp0
(lp1
(lp2
S'009380'
p3
aS'horse'
p4
aS'err_lowIoU'
p5
aF37.6
aF66.1
aF407.6
aF336.8
aa(lp6
(lp7
F87.0
aF84.0
aF397.0
aF245.0
aaaa(lp8
(lp9
S'005677'
p10
ag4
ag5
aF94.8
aF58.4
aF225.3
aF355.2
aa(lp11
(lp12
F116.0
aF66.0
aF355.0
aF357.0
aa(lp13
F80.0
aF271.0
aF118.0
aF357.0
aaaa(lp14
(lp15
S'004696'
p16
ag4
ag5
aF1.0
aF165.8
aF105.4
aF271.8
aa(lp17
aa(lp18
(lp19
S'005797'
p20
ag4
ag5
aF1.0
aF72.2
aF265.0
aF365.0
aa(lp21
aa(lp22
(lp23
S'001589'
p24
ag4
ag5
aF353.8
aF90.0
aF439.0
aF319.5
aa(lp25
aa(lp26
(lp27
S'001589'
p28
ag4
ag5
aF22.8
aF20.4
aF231.2
aF323.0
aa(lp29
aa(lp30
(lp31
S'003179'
p32
ag4
ag5
aF230.9
aF129.8
aF465.9
aF307.7
aa(lp33
aa(lp34
(lp35
S'007118'
p36
ag4
ag5
aF46.8
aF82.1
aF338.1
aF314.0
aa(lp37
aa(lp38
(lp39
S'008243'
p40
ag4
ag5
aF1.0
aF122.2
aF301.3
aF500.0
aa(lp41
aa(lp42
(lp43
S'007789'
p44
ag4
ag5
aF126.1
aF137.7
aF167.4
aF224.7
aa(lp45
(lp46
F128.0
aF163.0
aF156.0
aF222.0
aa(lp47
F156.0
aF162.0
aF174.0
aF221.0
aa(lp48
F177.0
aF161.0
aF211.0
aF219.0
aa(lp49
F209.0
aF166.0
aF220.0
aF215.0
aa(lp50
F228.0
aF165.0
aF249.0
aF217.0
aa(lp51
F254.0
aF164.0
aF275.0
aF209.0
aa(lp52
F277.0
aF165.0
aF296.0
aF209.0
aaaa(lp53
(lp54
S'006566'
p55
ag4
ag5
aF33.6
aF15.9
aF195.6
aF259.8
aa(lp56
aa(lp57
(lp58
S'009843'
p59
ag4
ag5
aF24.0
aF49.0
aF326.1
aF480.5
aa(lp60
aa(lp61
(lp62
S'002071'
p63
ag4
ag5
aF353.8
aF153.2
aF417.4
aF221.8
aa(lp64
(lp65
F85.0
aF133.0
aF120.0
aF236.0
aa(lp66
F146.0
aF123.0
aF317.0
aF279.0
aa(lp67
F339.0
aF172.0
aF403.0
aF216.0
aa(lp68
F226.0
aF138.0
aF370.0
aF249.0
aaaa(lp69
(lp70
S'004233'
p71
ag4
ag5
aF355.4
aF111.2
aF378.0
aF151.0
aa(lp72
aa(lp73
(lp74
S'009101'
p75
ag4
ag5
aF230.3
aF97.7
aF350.3
aF318.0
aa(lp76
(lp77
F3.0
aF80.0
aF193.0
aF318.0
aa(lp78
F3.0
aF104.0
aF363.0
aF318.0
aa(lp79
F367.0
aF131.0
aF471.0
aF318.0
aaaa(lp80
(lp81
S'007171'
p82
ag4
ag5
aF13.3
aF1.0
aF154.5
aF332.5
aa(lp83
aa(lp84
(lp85
S'003399'
p86
ag4
ag5
aF193.8
aF139.4
aF444.1
aF274.2
aa(lp87
aa(lp88
(lp89
S'002768'
p90
ag4
ag5
aF256.7
aF166.9
aF373.3
aF293.9
aa(lp91
aa(lp92
(lp93
S'009400'
p94
ag4
ag5
aF346.9
aF130.6
aF431.0
aF274.0
aa(lp95
aa(lp96
(lp97
S'003095'
p98
ag4
ag5
aF124.0
aF67.9
aF353.7
aF500.0
aa(lp99
aa(lp100
(lp101
S'004079'
p102
ag4
ag5
aF199.7
aF21.9
aF344.5
aF315.6
aa(lp103
aa(lp104
(lp105
S'005973'
p106
ag4
ag5
aF131.8
aF128.3
aF201.4
aF278.5
aa(lp107
(lp108
F133.0
aF132.0
aF333.0
aF396.0
aaaa(lp109
(lp110
S'008898'
p111
ag4
ag5
aF8.1
aF16.0
aF255.2
aF375.0
aa(lp112
aa(lp113
(lp114
S'007158'
p115
ag4
ag5
aF56.7
aF107.4
aF354.9
aF497.1
aa(lp116
aa(lp117
(lp118
S'000290'
p119
ag4
ag5
aF166.4
aF57.5
aF333.0
aF500.0
aa(lp120
aa(lp121
(lp122
S'009046'
p123
ag4
ag5
aF47.8
aF146.6
aF172.4
aF405.3
aa(lp124
(lp125
F49.0
aF155.0
aF420.0
aF500.0
aa(lp126
F341.0
aF231.0
aF416.0
aF331.0
aaaa(lp127
(lp128
S'007412'
p129
ag4
ag5
aF3.9
aF106.1
aF184.9
aF330.5
aa(lp130
(lp131
F2.0
aF7.0
aF479.0
aF335.0
aaaa(lp132
(lp133
S'002141'
p134
ag4
ag5
aF24.6
aF190.2
aF285.2
aF444.1
aa(lp135
aa(lp136
(lp137
S'000704'
p138
ag4
ag5
aF8.9
aF75.6
aF121.4
aF327.8
aa(lp139
(lp140
F13.0
aF81.0
aF235.0
aF341.0
aa(lp141
F92.0
aF90.0
aF337.0
aF343.0
aaaa(lp142
(lp143
S'000176'
p144
ag4
ag5
aF169.4
aF149.2
aF295.1
aF289.1
aa(lp145
aa(lp146
(lp147
S'008605'
p148
ag4
ag5
aF132.1
aF121.9
aF195.4
aF230.9
aa(lp149
(lp150
F127.0
aF124.0
aF157.0
aF204.0
aaaa(lp151
(lp152
S'003148'
p153
ag4
ag5
aF351.1
aF93.6
aF460.2
aF230.1
aa(lp154
aa(lp155
(lp156
S'006623'
p157
ag4
ag5
aF14.2
aF127.2
aF238.8
aF459.0
aa(lp158
(lp159
F145.0
aF106.0
aF271.0
aF432.0
aaaa(lp160
(lp161
S'009903'
p162
ag4
ag5
aF307.0
aF82.8
aF415.0
aF314.6
aa(lp163
(lp164
F86.0
aF82.0
aF412.0
aF319.0
aaaa(lp165
(lp166
S'007412'
p167
ag4
ag5
aF252.1
aF13.5
aF483.9
aF212.5
aa(lp168
(lp169
F2.0
aF7.0
aF479.0
aF335.0
aaaa(lp170
(lp171
S'006728'
p172
ag4
ag5
aF137.0
aF60.8
aF278.7
aF341.5
aa(lp173
(lp174
F139.0
aF3.0
aF500.0
aF375.0
aaaa(lp175
(lp176
S'007044'
p177
ag4
ag5
aF130.7
aF153.5
aF200.3
aF410.4
aa(lp178
aa(lp179
(lp180
S'002133'
p181
ag4
ag5
aF10.5
aF133.1
aF339.7
aF375.0
aa(lp182
aa(lp183
(lp184
S'003841'
p185
ag4
ag5
aF1.0
aF9.3
aF428.5
aF441.7
aa(lp186
aa(lp187
(lp188
S'008605'
p189
ag4
ag5
aF209.4
aF112.3
aF298.8
aF231.2
aa(lp190
(lp191
F127.0
aF124.0
aF157.0
aF204.0
aaaa(lp192
(lp193
S'000018'
p194
ag4
ag5
aF66.3
aF59.6
aF367.0
aF281.9
aa(lp195
aa(lp196
(lp197
S'008441'
p198
ag4
ag5
aF56.3
aF16.9
aF216.1
aF273.6
aa(lp199
aa(lp200
(lp201
S'006591'
p202
ag4
ag5
aF217.6
aF175.7
aF351.4
aF324.8
aa(lp203
aa(lp204
(lp205
S'005299'
p206
ag4
ag5
aF364.6
aF19.4
aF466.7
aF313.5
aa(lp207
(lp208
F394.0
aF22.0
aF480.0
aF193.0
aa(lp209
F124.0
aF23.0
aF449.0
aF318.0
aa(lp210
F1.0
aF40.0
aF286.0
aF318.0
aaaa(lp211
(lp212
S'004261'
p213
ag4
ag5
aF281.6
aF40.8
aF493.0
aF244.0
aa(lp214
aa(lp215
(lp216
S'000025'
p217
ag4
ag5
aF56.0
aF148.8
aF453.2
aF375.0
aa(lp218
aa(lp219
(lp220
S'006580'
p221
ag4
ag5
aF108.2
aF224.7
aF191.6
aF299.3
aa(lp222
aa(lp223
(lp224
S'007774'
p225
ag4
ag5
aF274.7
aF117.7
aF389.1
aF311.8
aa(lp226
(lp227
F1.0
aF43.0
aF384.0
aF375.0
aaaa(lp228
(lp229
S'001508'
p230
ag4
ag5
aF121.2
aF242.7
aF363.3
aF500.0
aa(lp231
aa(lp232
(lp233
S'002299'
p234
ag4
ag5
aF19.0
aF68.9
aF438.7
aF372.2
aa(lp235
aa(lp236
(lp237
S'003411'
p238
ag4
ag5
aF139.3
aF41.9
aF473.3
aF373.7
aa(lp239
aa(lp240
(lp241
S'009452'
p242
ag4
ag5
aF424.4
aF130.9
aF500.0
aF332.0
aa(lp243
aa(lp244
(lp245
S'005426'
p246
ag4
ag5
aF229.8
aF43.5
aF326.2
aF251.0
aa(lp247
aa(lp248
(lp249
S'001655'
p250
ag4
ag5
aF173.5
aF1.0
aF500.0
aF335.8
aa(lp251
aa(lp252
(lp253
S'001329'
p254
ag4
ag5
aF58.8
aF155.6
aF82.8
aF192.8
aa(lp255
aa(lp256
a(lp257
a(lp258
a(lp259
a(lp260
a(lp261
a(lp262
a(lp263
a(lp264
a(lp265
a(lp266
a(lp267
a(lp268
a(lp269
a(lp270
a(lp271
a(lp272
a(lp273
a(lp274
a(lp275
a(lp276
a(lp277
a(lp278
a(lp279
a(lp280
a(lp281
a(lp282
a(lp283
a(lp284
a(lp285
a(lp286
a(lp287
a(lp288
a(lp289
a(lp290
a(lp291
a(lp292
a(lp293
a(lp294
a(lp295
a(lp296
a(lp297
a(lp298
a(lp299
a(lp300
a(lp301
a(lp302
a(lp303
a(lp304
a(lp305
a(lp306
a(lp307
a(lp308
a(lp309
a(lp310
a(lp311
a(lp312
a(lp313
a(lp314
a(lp315
a(lp316
a(lp317
a(lp318
a(lp319
a(lp320
a(lp321
a(lp322
a(lp323
a(lp324
a(lp325
a(lp326
a(lp327
a(lp328
a(lp329
a(lp330
a(lp331
a(lp332
a(lp333
a(lp334
a(lp335
a(lp336
a(lp337
a(lp338
a(lp339
a(lp340
a(lp341
a(lp342
a(lp343
a(lp344
a(lp345
a(lp346
a(lp347
a(lp348
a(lp349
a(lp350
a(lp351
a(lp352
a(lp353
a(lp354
a(lp355
a(lp356
a(lp357
a(lp358
a(lp359
a(lp360
a(lp361
a(lp362
a(lp363
a(lp364
a(lp365
a(lp366
a(lp367
a(lp368
a(lp369
a(lp370
a(lp371
a(lp372
a(lp373
a(lp374
a(lp375
a(lp376
a(lp377
a(lp378
a(lp379
a(lp380
a(lp381
a(lp382
a(lp383
a(lp384
a(lp385
a(lp386
a(lp387
a(lp388
a(lp389
a(lp390
a(lp391
a(lp392
a(lp393
a(lp394
a(lp395
a(lp396
a(lp397
a(lp398
a(lp399
a(lp400
a(lp401
a(lp402
a(lp403
a(lp404
a(lp405
a(lp406
a(lp407
a(lp408
a(lp409
a(lp410
a(lp411
a(lp412
a(lp413
a(lp414
a(lp415
a(lp416
a(lp417
a(lp418
a(lp419
a(lp420
a(lp421
a(lp422
a(lp423
a(lp424
a(lp425
a(lp426
a(lp427
a(lp428
a(lp429
a(lp430
a(lp431
a(lp432
a(lp433
a(lp434
a(lp435
a(lp436
a(lp437
a(lp438
a(lp439
a(lp440
a(lp441
a(lp442
a(lp443
a(lp444
a(lp445
a(lp446
a(lp447
a(lp448
a(lp449
a(lp450
a(lp451
a(lp452
a(lp453
a(lp454
a(lp455
a(lp456
a(lp457
a(lp458
a(lp459
a(lp460
a(lp461
a(lp462
a(lp463
a(lp464
a(lp465
a(lp466
a(lp467
a(lp468
a(lp469
a(lp470
a(lp471
a(lp472
a(lp473
a(lp474
a(lp475
a(lp476
a(lp477
a(lp478
a(lp479
a(lp480
a(lp481
a(lp482
a(lp483
a(lp484
a(lp485
a(lp486
a(lp487
a(lp488
a(lp489
a(lp490
a(lp491
a(lp492
a(lp493
a(lp494
a(lp495
a(lp496
a(lp497
a(lp498
a(lp499
a(lp500
a(lp501
a(lp502
a(lp503
a(lp504
a(lp505
a(lp506
a(lp507
a(lp508
a(lp509
a(lp510
a(lp511
a(lp512
a(lp513
a(lp514
a(lp515
a(lp516
a(lp517
a(lp518
a(lp519
a(lp520
a(lp521
a(lp522
a(lp523
a(lp524
a(lp525
a(lp526
a(lp527
a(lp528
a(lp529
a(lp530
a(lp531
a(lp532
a(lp533
a(lp534
a(lp535
a(lp536
a(lp537
a(lp538
a(lp539
a(lp540
a(lp541
a(lp542
a(lp543
a(lp544
a(lp545
a(lp546
a(lp547
a(lp548
a.