(lp0
(lp1
(lp2
S'003730'
p3
aS'motorbike'
p4
aS'err_lowIoU'
p5
aF137.9
aF45.9
aF379.0
aF294.3
aa(lp6
(lp7
F165.0
aF45.0
aF285.0
aF319.0
aa(lp8
F292.0
aF73.0
aF377.0
aF253.0
aaaF0.994
aa(lp9
(lp10
S'004448'
p11
ag4
ag5
aF88.7
aF32.8
aF500.0
aF271.1
aa(lp12
(lp13
F94.0
aF50.0
aF274.0
aF287.0
aa(lp14
F233.0
aF58.0
aF398.0
aF252.0
aa(lp15
F380.0
aF61.0
aF483.0
aF234.0
aaaF0.994
aa(lp16
(lp17
S'009495'
p18
ag4
ag5
aF23.3
aF90.3
aF494.9
aF360.3
aa(lp19
(lp20
F331.0
aF81.0
aF500.0
aF351.0
aa(lp21
F177.0
aF75.0
aF342.0
aF344.0
aa(lp22
F24.0
aF96.0
aF194.0
aF337.0
aaaF0.993
aa(lp23
(lp24
S'006469'
p25
ag4
ag5
aF76.7
aF208.7
aF165.3
aF285.8
aa(lp26
(lp27
F165.0
aF208.0
aF274.0
aF284.0
aa(lp28
F121.0
aF218.0
aF153.0
aF281.0
aa(lp29
F74.0
aF224.0
aF116.0
aF282.0
aaaF0.991
aa(lp30
(lp31
S'006567'
p32
ag4
ag5
aF21.5
aF175.9
aF90.8
aF244.6
aa(lp33
(lp34
F13.0
aF174.0
aF55.0
aF237.0
aa(lp35
F242.0
aF180.0
aF406.0
aF300.0
aa(lp36
F189.0
aF208.0
aF260.0
aF286.0
aa(lp37
F59.0
aF180.0
aF94.0
aF241.0
aaaF0.99
aa(lp38
(lp39
S'004650'
p40
ag4
ag5
aF55.3
aF73.6
aF264.0
aF317.8
aa(lp41
(lp42
F44.0
aF62.0
aF479.0
aF321.0
aaaF0.988
aa(lp43
(lp44
S'005750'
p45
ag4
ag5
aF277.2
aF169.1
aF331.4
aF249.5
aa(lp46
aF0.978
aa(lp47
(lp48
S'000467'
p49
ag4
ag5
aF180.3
aF129.0
aF274.5
aF226.5
aa(lp50
(lp51
F487.0
aF131.0
aF500.0
aF158.0
aa(lp52
F370.0
aF123.0
aF472.0
aF176.0
aa(lp53
F291.0
aF129.0
aF349.0
aF205.0
aa(lp54
F217.0
aF148.0
aF284.0
aF229.0
aa(lp55
F189.0
aF150.0
aF235.0
aF215.0
aa(lp56
F87.0
aF141.0
aF168.0
aF265.0
aaaF0.977
aa(lp57
(lp58
S'004243'
p59
ag4
ag5
aF243.9
aF141.0
aF438.5
aF237.3
aa(lp60
(lp61
F1.0
aF174.0
aF106.0
aF308.0
aa(lp62
F85.0
aF164.0
aF213.0
aF291.0
aa(lp63
F174.0
aF163.0
aF263.0
aF261.0
aa(lp64
F235.0
aF156.0
aF334.0
aF244.0
aa(lp65
F305.0
aF136.0
aF402.0
aF230.0
aa(lp66
F372.0
aF161.0
aF426.0
aF215.0
aa(lp67
F456.0
aF132.0
aF500.0
aF181.0
aa(lp68
F423.0
aF132.0
aF465.0
aF196.0
aaaF0.975
aa(lp69
(lp70
S'006796'
p71
ag4
ag5
aF1.0
aF25.9
aF148.6
aF107.9
aa(lp72
(lp73
F125.0
aF91.0
aF348.0
aF298.0
aa(lp74
F1.0
aF32.0
aF54.0
aF104.0
aa(lp75
F33.0
aF26.0
aF93.0
aF102.0
aa(lp76
F82.0
aF35.0
aF134.0
aF102.0
aa(lp77
F128.0
aF28.0
aF164.0
aF106.0
aa(lp78
F166.0
aF42.0
aF265.0
aF100.0
aa(lp79
F325.0
aF41.0
aF342.0
aF98.0
aa(lp80
F343.0
aF43.0
aF366.0
aF100.0
aa(lp81
F360.0
aF42.0
aF397.0
aF98.0
aa(lp82
F390.0
aF35.0
aF462.0
aF99.0
aa(lp83
F447.0
aF43.0
aF470.0
aF101.0
aa(lp84
F468.0
aF60.0
aF489.0
aF95.0
aaaF0.972
aa(lp85
(lp86
S'006471'
p87
ag4
ag5
aF98.2
aF58.9
aF145.7
aF94.8
aa(lp88
aF0.971
aa(lp89
(lp90
S'004243'
p91
ag4
ag5
aF398.9
aF135.6
aF496.2
aF195.3
aa(lp92
(lp93
F1.0
aF174.0
aF106.0
aF308.0
aa(lp94
F85.0
aF164.0
aF213.0
aF291.0
aa(lp95
F174.0
aF163.0
aF263.0
aF261.0
aa(lp96
F235.0
aF156.0
aF334.0
aF244.0
aa(lp97
F305.0
aF136.0
aF402.0
aF230.0
aa(lp98
F372.0
aF161.0
aF426.0
aF215.0
aa(lp99
F456.0
aF132.0
aF500.0
aF181.0
aa(lp100
F423.0
aF132.0
aF465.0
aF196.0
aaaF0.964
aa(lp101
(lp102
S'006567'
p103
ag4
ag5
aF159.5
aF174.8
aF283.0
aF291.2
aa(lp104
(lp105
F13.0
aF174.0
aF55.0
aF237.0
aa(lp106
F242.0
aF180.0
aF406.0
aF300.0
aa(lp107
F189.0
aF208.0
aF260.0
aF286.0
aa(lp108
F59.0
aF180.0
aF94.0
aF241.0
aaaF0.934
aa(lp109
(lp110
S'004616'
p111
ag4
ag5
aF209.8
aF33.4
aF490.4
aF357.4
aa(lp112
(lp113
F3.0
aF2.0
aF500.0
aF375.0
aaaF0.93
aa(lp114
(lp115
S'009293'
p116
ag4
ag5
aF16.7
aF7.2
aF219.8
aF243.8
aa(lp117
(lp118
F52.0
aF1.0
aF298.0
aF448.0
aaaF0.918
aa(lp119
(lp120
S'008901'
p121
ag4
ag5
aF71.5
aF178.5
aF392.6
aF375.0
aa(lp122
(lp123
F59.0
aF234.0
aF297.0
aF375.0
aaaF0.912
aa(lp124
(lp125
S'002631'
p126
ag4
ag5
aF38.7
aF177.7
aF319.6
aF461.3
aa(lp127
aF0.895
aa(lp128
(lp129
S'001476'
p130
ag4
ag5
aF64.7
aF111.7
aF112.7
aF143.2
aa(lp131
(lp132
F199.0
aF143.0
aF327.0
aF266.0
aa(lp133
F88.0
aF115.0
aF129.0
aF145.0
aa(lp134
F124.0
aF110.0
aF136.0
aF131.0
aa(lp135
F134.0
aF111.0
aF152.0
aF139.0
aa(lp136
F153.0
aF111.0
aF167.0
aF144.0
aa(lp137
F166.0
aF115.0
aF185.0
aF141.0
aa(lp138
F306.0
aF117.0
aF334.0
aF145.0
aa(lp139
F381.0
aF126.0
aF411.0
aF145.0
aaaF0.892
aa(lp140
(lp141
S'008745'
p142
ag4
ag5
aF204.7
aF190.6
aF326.1
aF375.0
aa(lp143
aF0.884
aa(lp144
(lp145
S'007645'
p146
ag4
ag5
aF313.5
aF32.8
aF490.0
aF271.3
aa(lp147
(lp148
F3.0
aF10.0
aF453.0
aF337.0
aa(lp149
F404.0
aF71.0
aF500.0
aF217.0
aa(lp150
F32.0
aF1.0
aF342.0
aF50.0
aaaF0.878
aa(lp151
(lp152
S'006796'
p153
ag4
ag5
aF329.1
aF44.4
aF400.4
aF100.0
aa(lp154
(lp155
F125.0
aF91.0
aF348.0
aF298.0
aa(lp156
F1.0
aF32.0
aF54.0
aF104.0
aa(lp157
F33.0
aF26.0
aF93.0
aF102.0
aa(lp158
F82.0
aF35.0
aF134.0
aF102.0
aa(lp159
F128.0
aF28.0
aF164.0
aF106.0
aa(lp160
F166.0
aF42.0
aF265.0
aF100.0
aa(lp161
F325.0
aF41.0
aF342.0
aF98.0
aa(lp162
F343.0
aF43.0
aF366.0
aF100.0
aa(lp163
F360.0
aF42.0
aF397.0
aF98.0
aa(lp164
F390.0
aF35.0
aF462.0
aF99.0
aa(lp165
F447.0
aF43.0
aF470.0
aF101.0
aa(lp166
F468.0
aF60.0
aF489.0
aF95.0
aaaF0.877
aa(lp167
(lp168
S'009677'
p169
ag4
ag5
aF80.6
aF135.5
aF401.2
aF317.1
aa(lp170
aF0.872
aa(lp171
(lp172
S'002402'
p173
ag4
ag5
aF93.3
aF31.6
aF150.7
aF78.5
aa(lp174
aF0.867
aa(lp175
(lp176
S'007186'
p177
ag4
ag5
aF174.7
aF177.8
aF239.2
aF249.1
aa(lp178
aF0.859
aa(lp179
(lp180
S'006469'
p181
ag4
ag5
aF122.5
aF188.7
aF221.9
aF289.1
aa(lp182
(lp183
F165.0
aF208.0
aF274.0
aF284.0
aa(lp184
F121.0
aF218.0
aF153.0
aF281.0
aa(lp185
F74.0
aF224.0
aF116.0
aF282.0
aaaF0.857
aa(lp186
(lp187
S'008579'
p188
ag4
ag5
aF297.9
aF233.8
aF356.6
aF309.2
aa(lp189
(lp190
F297.0
aF213.0
aF478.0
aF308.0
aa(lp191
F47.0
aF185.0
aF229.0
aF308.0
aaaF0.855
aa(lp192
(lp193
S'002592'
p194
ag4
ag5
aF24.2
aF80.8
aF184.5
aF291.4
aa(lp195
(lp196
F43.0
aF4.0
aF427.0
aF333.0
aaaF0.829
aa(lp197
(lp198
S'005087'
p199
ag4
ag5
aF392.9
aF3.6
aF470.5
aF37.3
aa(lp200
(lp201
F178.0
aF111.0
aF358.0
aF290.0
aaaF0.829
aa(lp202
(lp203
S'002185'
p204
ag4
ag5
aF313.3
aF33.7
aF500.0
aF215.5
aa(lp205
(lp206
F168.0
aF111.0
aF500.0
aF331.0
aa(lp207
F43.0
aF93.0
aF313.0
aF265.0
aa(lp208
F128.0
aF53.0
aF161.0
aF109.0
aa(lp209
F107.0
aF49.0
aF132.0
aF103.0
aa(lp210
F63.0
aF52.0
aF110.0
aF104.0
aa(lp211
F1.0
aF58.0
aF61.0
aF106.0
aa(lp212
F295.0
aF70.0
aF354.0
aF132.0
aaaF0.809
aa(lp213
(lp214
S'009344'
p215
ag4
ag5
aF35.1
aF60.0
aF469.2
aF334.0
aa(lp216
aF0.798
aa(lp217
(lp218
S'005048'
p219
ag4
ag5
aF167.4
aF1.0
aF218.1
aF35.2
aa(lp220
aF0.782
aa(lp221
(lp222
S'000897'
p223
ag4
ag5
aF138.2
aF8.1
aF230.2
aF74.4
aa(lp224
aF0.742
aa(lp225
(lp226
S'005041'
p227
ag4
ag5
aF32.0
aF200.5
aF300.2
aF375.0
aa(lp228
(lp229
F316.0
aF211.0
aF369.0
aF271.0
aa(lp230
F33.0
aF276.0
aF260.0
aF375.0
aaaF0.74
aa(lp231
(lp232
S'000111'
p233
ag4
ag5
aF153.5
aF180.6
aF211.9
aF226.6
aa(lp234
(lp235
F92.0
aF198.0
aF141.0
aF227.0
aaaF0.74
aa(lp236
(lp237
S'004650'
p238
ag4
ag5
aF201.6
aF117.6
aF471.5
aF327.7
aa(lp239
(lp240
F44.0
aF62.0
aF479.0
aF321.0
aaaF0.739
aa(lp241
(lp242
S'006193'
p243
ag4
ag5
aF60.5
aF120.1
aF453.4
aF301.8
aa(lp244
(lp245
F1.0
aF184.0
aF229.0
aF337.0
aa(lp246
F419.0
aF116.0
aF488.0
aF209.0
aa(lp247
F181.0
aF149.0
aF363.0
aF294.0
aa(lp248
F270.0
aF122.0
aF450.0
aF242.0
aaaF0.729
aa(lp249
(lp250
S'001798'
p251
ag4
ag5
aF402.5
aF18.5
aF498.0
aF231.1
aa(lp252
(lp253
F27.0
aF62.0
aF474.0
aF305.0
aa(lp254
F1.0
aF1.0
aF212.0
aF172.0
aa(lp255
F258.0
aF1.0
aF443.0
aF128.0
aa(lp256
F189.0
aF1.0
aF318.0
aF84.0
aaaF0.719
aa(lp257
(lp258
S'003393'
p259
ag4
ag5
aF74.3
aF47.9
aF322.4
aF216.5
aa(lp260
(lp261
F63.0
aF82.0
aF375.0
aF500.0
aaaF0.715
aa(lp262
(lp263
S'002971'
p264
ag4
ag5
aF451.8
aF146.5
aF498.5
aF265.7
aa(lp265
aF0.707
aa(lp266
(lp267
S'005560'
p268
ag4
ag5
aF139.4
aF141.8
aF405.5
aF351.1
aa(lp269
aF0.698
aa(lp270
(lp271
S'004725'
p272
ag4
ag5
aF8.9
aF42.7
aF221.7
aF305.8
aa(lp273
(lp274
F5.0
aF38.0
aF143.0
aF80.0
aa(lp275
F8.0
aF57.0
aF470.0
aF375.0
aaaF0.692
aa(lp276
(lp277
S'006567'
p278
ag4
ag5
aF113.8
aF186.5
aF205.7
aF287.4
aa(lp279
(lp280
F13.0
aF174.0
aF55.0
aF237.0
aa(lp281
F242.0
aF180.0
aF406.0
aF300.0
aa(lp282
F189.0
aF208.0
aF260.0
aF286.0
aa(lp283
F59.0
aF180.0
aF94.0
aF241.0
aaaF0.667
aa(lp284
(lp285
S'006796'
p286
ag4
ag5
aF172.0
aF37.9
aF220.7
aF102.3
aa(lp287
(lp288
F125.0
aF91.0
aF348.0
aF298.0
aa(lp289
F1.0
aF32.0
aF54.0
aF104.0
aa(lp290
F33.0
aF26.0
aF93.0
aF102.0
aa(lp291
F82.0
aF35.0
aF134.0
aF102.0
aa(lp292
F128.0
aF28.0
aF164.0
aF106.0
aa(lp293
F166.0
aF42.0
aF265.0
aF100.0
aa(lp294
F325.0
aF41.0
aF342.0
aF98.0
aa(lp295
F343.0
aF43.0
aF366.0
aF100.0
aa(lp296
F360.0
aF42.0
aF397.0
aF98.0
aa(lp297
F390.0
aF35.0
aF462.0
aF99.0
aa(lp298
F447.0
aF43.0
aF470.0
aF101.0
aa(lp299
F468.0
aF60.0
aF489.0
aF95.0
aaaF0.659
aa(lp300
(lp301
S'003079'
p302
ag4
ag5
aF144.7
aF227.0
aF260.8
aF320.3
aa(lp303
aF0.657
aa(lp304
(lp305
S'006527'
p306
ag4
ag5
aF12.6
aF30.1
aF496.3
aF332.0
aa(lp307
aF0.647
aa(lp308
(lp309
S'006567'
p310
ag4
ag5
aF61.0
aF185.5
aF126.2
aF252.7
aa(lp311
(lp312
F13.0
aF174.0
aF55.0
aF237.0
aa(lp313
F242.0
aF180.0
aF406.0
aF300.0
aa(lp314
F189.0
aF208.0
aF260.0
aF286.0
aa(lp315
F59.0
aF180.0
aF94.0
aF241.0
aaaF0.618
aa(lp316
(lp317
S'000364'
p318
ag4
ag5
aF60.8
aF98.7
aF229.4
aF279.8
aa(lp319
(lp320
F54.0
aF25.0
aF454.0
aF315.0
aa(lp321
F318.0
aF37.0
aF489.0
aF161.0
aaaF0.61
aa(lp322
(lp323
S'003896'
p324
ag4
ag5
aF10.2
aF215.8
aF209.4
aF408.2
aa(lp325
aF0.595
aa(lp326
(lp327
S'005041'
p328
ag4
ag5
aF311.5
aF178.1
aF393.9
aF273.6
aa(lp329
(lp330
F316.0
aF211.0
aF369.0
aF271.0
aa(lp331
F33.0
aF276.0
aF260.0
aF375.0
aaaF0.59
aa(lp332
(lp333
S'005689'
p334
ag4
ag5
aF232.8
aF191.3
aF491.4
aF375.0
aa(lp335
aF0.581
aa(lp336
(lp337
S'000567'
p338
ag4
ag5
aF172.6
aF208.6
aF292.7
aF375.0
aa(lp339
aF0.575
aa(lp340
(lp341
S'003839'
p342
ag4
ag5
aF115.1
aF228.7
aF197.3
aF298.8
aa(lp343
aF0.569
aa(lp344
(lp345
S'007961'
p346
ag4
ag5
aF55.6
aF160.1
aF158.1
aF236.2
aa(lp347
aF0.565
aa(lp348
(lp349
S'004447'
p350
ag4
ag5
aF165.5
aF250.5
aF347.7
aF359.4
aa(lp351
aF0.558
aa(lp352
(lp353
S'004725'
p354
ag4
ag5
aF314.8
aF32.9
aF371.6
aF155.3
aa(lp355
(lp356
F5.0
aF38.0
aF143.0
aF80.0
aa(lp357
F8.0
aF57.0
aF470.0
aF375.0
aaaF0.554
aa(lp358
(lp359
S'009705'
p360
ag4
ag5
aF392.9
aF1.0
aF500.0
aF167.7
aa(lp361
(lp362
F439.0
aF8.0
aF500.0
aF138.0
aa(lp363
F342.0
aF5.0
aF468.0
aF96.0
aa(lp364
F202.0
aF30.0
aF416.0
aF132.0
aa(lp365
F55.0
aF60.0
aF467.0
aF259.0
aaaF0.553
aa(lp366
(lp367
S'003999'
p368
ag4
ag5
aF1.0
aF47.3
aF480.0
aF373.2
aa(lp369
aF0.546
aa(lp370
(lp371
S'003081'
p372
ag4
ag5
aF1.0
aF142.2
aF353.3
aF375.0
aa(lp373
aF0.546
aa(lp374
(lp375
S'007171'
p376
ag4
ag5
aF303.7
aF83.9
aF500.0
aF320.4
aa(lp377
aF0.54
aa(lp378
(lp379
S'003482'
p380
ag4
ag5
aF157.1
aF132.5
aF406.4
aF372.5
aa(lp381
aF0.536
aa(lp382
(lp383
S'005249'
p384
ag4
ag5
aF11.6
aF125.3
aF341.1
aF416.3
aa(lp385
aF0.53
aa(lp386
(lp387
S'006413'
p388
ag4
ag5
aF22.8
aF130.3
aF253.5
aF500.0
aa(lp389
aF0.529
aa(lp390
(lp391
S'005172'
p392
ag4
ag5
aF182.5
aF47.7
aF497.8
aF333.0
aa(lp393
aF0.528
aa(lp394
(lp395
S'005632'
p396
ag4
ag5
aF20.5
aF171.6
aF135.8
aF277.1
aa(lp397
aF0.527
aa(lp398
(lp399
S'009924'
p400
ag4
ag5
aF60.4
aF68.8
aF255.0
aF282.3
aa(lp401
(lp402
F6.0
aF36.0
aF373.0
aF500.0
aaaF0.525
aa(lp403
(lp404
S'004456'
p405
ag4
ag5
aF56.8
aF92.4
aF366.0
aF299.3
aa(lp406
aF0.525
aa(lp407
(lp408
S'005091'
p409
ag4
ag5
aF55.9
aF70.2
aF77.1
aF138.7
aa(lp410
aF0.517
aa(lp411
(lp412
S'004378'
p413
ag4
ag5
aF202.2
aF247.3
aF375.0
aF451.1
aa(lp414
aF0.515
aa(lp415
(lp416
S'009427'
p417
ag4
ag5
aF44.4
aF13.0
aF476.8
aF328.0
aa(lp418
aF0.511
aa(lp419
(lp420
S'004920'
p421
ag4
ag5
aF1.0
aF44.5
aF500.0
aF312.0
aa(lp422
aF0.505
aa(lp423
a(lp424
a(lp425
a(lp426
a(lp427
a(lp428
a(lp429
a(lp430
a(lp431
a(lp432
a(lp433
a(lp434
a(lp435
a(lp436
a(lp437
a(lp438
a(lp439
a(lp440
a(lp441
a(lp442
a(lp443
a(lp444
a(lp445
a(lp446
a(lp447
a(lp448
a(lp449
a(lp450
a(lp451
a(lp452
a(lp453
a(lp454
a(lp455
a(lp456
a(lp457
a(lp458
a(lp459
a(lp460
a(lp461
a(lp462
a(lp463
a(lp464
a(lp465
a(lp466
a(lp467
a(lp468
a(lp469
a(lp470
a(lp471
a(lp472
a(lp473
a(lp474
a(lp475
a(lp476
a(lp477
a(lp478
a(lp479
a(lp480
a(lp481
a(lp482
a(lp483
a(lp484
a(lp485
a(lp486
a(lp487
a(lp488
a(lp489
a(lp490
a(lp491
a(lp492
a(lp493
a(lp494
a(lp495
a(lp496
a(lp497
a(lp498
a(lp499
a(lp500
a(lp501
a(lp502
a(lp503
a(lp504
a(lp505
a(lp506
a(lp507
a(lp508
a(lp509
a(lp510
a(lp511
a(lp512
a(lp513
a(lp514
a(lp515
a(lp516
a(lp517
a(lp518
a(lp519
a(lp520
a(lp521
a(lp522
a(lp523
a(lp524
a(lp525
a(lp526
a(lp527
a(lp528
a(lp529
a(lp530
a(lp531
a(lp532
a(lp533
a(lp534
a(lp535
a(lp536
a(lp537
a(lp538
a(lp539
a(lp540
a(lp541
a(lp542
a(lp543
a(lp544
a(lp545
a(lp546
a(lp547
a(lp548
a(lp549
a(lp550
a(lp551
a(lp552
a(lp553
a(lp554
a(lp555
a(lp556
a(lp557
a(lp558
a(lp559
a(lp560
a(lp561
a(lp562
a(lp563
a(lp564
a(lp565
a(lp566
a(lp567
a(lp568
a(lp569
a(lp570
a(lp571
a(lp572
a(lp573
a(lp574
a(lp575
a(lp576
a(lp577
a(lp578
a(lp579
a(lp580
a(lp581
a(lp582
a(lp583
a(lp584
a(lp585
a(lp586
a(lp587
a(lp588
a(lp589
a(lp590
a(lp591
a(lp592
a(lp593
a(lp594
a(lp595
a(lp596
a(lp597
a(lp598
a(lp599
a(lp600
a(lp601
a(lp602
a(lp603
a(lp604
a(lp605
a(lp606
a(lp607
a(lp608
a(lp609
a(lp610
a(lp611
a(lp612
a(lp613
a(lp614
a(lp615
a(lp616
a(lp617
a(lp618
a(lp619
a(lp620
a(lp621
a(lp622
a(lp623
a(lp624
a(lp625
a(lp626
a(lp627
a(lp628
a(lp629
a(lp630
a(lp631
a(lp632
a(lp633
a(lp634
a(lp635
a(lp636
a(lp637
a(lp638
a(lp639
a(lp640
a(lp641
a(lp642
a(lp643
a(lp644
a(lp645
a(lp646
a(lp647
a(lp648
a(lp649
a(lp650
a(lp651
a(lp652
a(lp653
a(lp654
a(lp655
a(lp656
a(lp657
a(lp658
a(lp659
a(lp660
a(lp661
a(lp662
a(lp663
a(lp664
a(lp665
a(lp666
a(lp667
a(lp668
a(lp669
a(lp670
a(lp671
a(lp672
a(lp673
a(lp674
a(lp675
a(lp676
a(lp677
a.