(lp0
(lp1
(lp2
S'008206'
p3
aS'pottedplant'
p4
aS'err_lowIoU'
p5
aF150.5
aF20.8
aF274.7
aF333.9
aa(lp6
(lp7
F119.0
aF32.0
aF304.0
aF234.0
aaaF0.997
aa(lp8
(lp9
S'009750'
p10
ag4
ag5
aF211.5
aF307.8
aF264.5
aF368.3
aa(lp11
(lp12
F336.0
aF140.0
aF401.0
aF375.0
aa(lp13
F206.0
aF216.0
aF263.0
aF373.0
aa(lp14
F128.0
aF157.0
aF180.0
aF358.0
aa(lp15
F16.0
aF168.0
aF52.0
aF333.0
aaaF0.995
aa(lp16
(lp17
S'006700'
p18
ag4
ag5
aF166.7
aF142.1
aF325.9
aF351.8
aa(lp19
(lp20
F143.0
aF1.0
aF349.0
aF347.0
aaaF0.992
aa(lp21
(lp22
S'000487'
p23
ag4
ag5
aF160.4
aF177.9
aF196.1
aF239.1
aa(lp24
aF0.991
aa(lp25
(lp26
S'004027'
p27
ag4
ag5
aF1.0
aF211.0
aF223.8
aF458.6
aa(lp28
(lp29
F223.0
aF260.0
aF280.0
aF320.0
aa(lp30
F178.0
aF22.0
aF333.0
aF401.0
aa(lp31
F66.0
aF38.0
aF239.0
aF415.0
aa(lp32
F86.0
aF256.0
aF201.0
aF449.0
aa(lp33
F1.0
aF214.0
aF124.0
aF417.0
aa(lp34
F78.0
aF365.0
aF146.0
aF460.0
aa(lp35
F54.0
aF361.0
aF103.0
aF440.0
aa(lp36
F17.0
aF348.0
aF71.0
aF433.0
aaaF0.991
aa(lp37
(lp38
S'005284'
p39
ag4
ag5
aF40.0
aF53.2
aF397.2
aF363.9
aa(lp40
(lp41
F323.0
aF8.0
aF494.0
aF359.0
aa(lp42
F132.0
aF188.0
aF314.0
aF371.0
aa(lp43
F2.0
aF68.0
aF158.0
aF367.0
aa(lp44
F153.0
aF50.0
aF316.0
aF268.0
aaaF0.989
aa(lp45
(lp46
S'003448'
p47
ag4
ag5
aF113.0
aF104.1
aF173.9
aF170.2
aa(lp48
(lp49
F274.0
aF309.0
aF313.0
aF349.0
aa(lp50
F247.0
aF277.0
aF287.0
aF327.0
aa(lp51
F282.0
aF206.0
aF330.0
aF330.0
aa(lp52
F456.0
aF293.0
aF480.0
aF329.0
aa(lp53
F465.0
aF227.0
aF480.0
aF265.0
aa(lp54
F462.0
aF169.0
aF480.0
aF205.0
aa(lp55
F462.0
aF108.0
aF480.0
aF145.0
aa(lp56
F455.0
aF45.0
aF480.0
aF91.0
aa(lp57
F462.0
aF1.0
aF480.0
aF41.0
aa(lp58
F294.0
aF171.0
aF375.0
aF250.0
aa(lp59
F230.0
aF57.0
aF293.0
aF242.0
aa(lp60
F191.0
aF210.0
aF223.0
aF239.0
aa(lp61
F164.0
aF175.0
aF203.0
aF224.0
aa(lp62
F77.0
aF82.0
aF205.0
aF170.0
aa(lp63
F22.0
aF203.0
aF51.0
aF245.0
aa(lp64
F1.0
aF231.0
aF19.0
aF258.0
aa(lp65
F1.0
aF199.0
aF26.0
aF244.0
aaaF0.989
aa(lp66
(lp67
S'000547'
p68
ag4
ag5
aF277.1
aF88.1
aF322.8
aF211.4
aa(lp69
aF0.989
aa(lp70
(lp71
S'005180'
p72
ag4
ag5
aF47.0
aF262.3
aF86.4
aF322.8
aa(lp73
(lp74
F93.0
aF289.0
aF189.0
aF419.0
aa(lp75
F84.0
aF250.0
aF135.0
aF319.0
aa(lp76
F22.0
aF246.0
aF94.0
aF327.0
aa(lp77
F1.0
aF224.0
aF23.0
aF285.0
aaaF0.987
aa(lp78
(lp79
S'006461'
p80
ag4
ag5
aF113.5
aF186.4
aF141.8
aF225.7
aa(lp81
aF0.986
aa(lp82
(lp83
S'003902'
p84
ag4
ag5
aF129.8
aF55.6
aF259.6
aF325.1
aa(lp85
aF0.985
aa(lp86
(lp87
S'005937'
p88
ag4
ag5
aF361.0
aF26.4
aF401.8
aF108.6
aa(lp89
(lp90
F327.0
aF3.0
aF401.0
aF104.0
aaaF0.985
aa(lp91
(lp92
S'008156'
p93
ag4
ag5
aF80.0
aF167.8
aF207.7
aF378.1
aa(lp94
(lp95
F232.0
aF90.0
aF265.0
aF212.0
aa(lp96
F73.0
aF97.0
aF174.0
aF314.0
aaaF0.984
aa(lp97
(lp98
S'000575'
p99
ag4
ag5
aF7.8
aF7.8
aF145.0
aF236.7
aa(lp100
(lp101
F208.0
aF22.0
aF309.0
aF150.0
aa(lp102
F3.0
aF8.0
aF92.0
aF98.0
aaaF0.981
aa(lp103
(lp104
S'001105'
p105
ag4
ag5
aF1.3
aF111.7
aF114.9
aF227.2
aa(lp106
aF0.981
aa(lp107
(lp108
S'008547'
p109
ag4
ag5
aF33.6
aF14.0
aF318.8
aF291.0
aa(lp110
(lp111
F330.0
aF170.0
aF443.0
aF298.0
aa(lp112
F240.0
aF63.0
aF377.0
aF295.0
aa(lp113
F150.0
aF46.0
aF255.0
aF300.0
aa(lp114
F25.0
aF155.0
aF108.0
aF249.0
aaaF0.981
aa(lp115
(lp116
S'001648'
p117
ag4
ag5
aF367.4
aF220.0
aF472.1
aF314.1
aa(lp118
(lp119
F363.0
aF238.0
aF412.0
aF328.0
aa(lp120
F386.0
aF199.0
aF440.0
aF310.0
aa(lp121
F400.0
aF23.0
aF500.0
aF282.0
aa(lp122
F454.0
aF197.0
aF500.0
aF302.0
aaaF0.981
aa(lp123
(lp124
S'005092'
p125
ag4
ag5
aF99.8
aF7.6
aF500.0
aF172.2
aa(lp126
(lp127
F101.0
aF2.0
aF313.0
aF154.0
aa(lp128
F285.0
aF2.0
aF392.0
aF175.0
aa(lp129
F374.0
aF58.0
aF480.0
aF159.0
aa(lp130
F443.0
aF2.0
aF500.0
aF127.0
aa(lp131
F367.0
aF2.0
aF445.0
aF69.0
aaaF0.98
aa(lp132
(lp133
S'000573'
p134
ag4
ag5
aF40.3
aF13.8
aF390.4
aF311.7
aa(lp135
aF0.98
aa(lp136
(lp137
S'001648'
p138
ag4
ag5
aF77.5
aF266.1
aF179.5
aF369.4
aa(lp139
(lp140
F363.0
aF238.0
aF412.0
aF328.0
aa(lp141
F386.0
aF199.0
aF440.0
aF310.0
aa(lp142
F400.0
aF23.0
aF500.0
aF282.0
aa(lp143
F454.0
aF197.0
aF500.0
aF302.0
aaaF0.98
aa(lp144
(lp145
S'003062'
p146
ag4
ag5
aF22.4
aF1.0
aF278.0
aF314.8
aa(lp147
(lp148
F173.0
aF36.0
aF490.0
aF375.0
aa(lp149
F302.0
aF1.0
aF475.0
aF164.0
aa(lp150
F1.0
aF1.0
aF227.0
aF175.0
aaaF0.978
aa(lp151
(lp152
S'004252'
p153
ag4
ag5
aF207.0
aF101.4
aF311.9
aF184.1
aa(lp154
aF0.978
aa(lp155
(lp156
S'003643'
p157
ag4
ag5
aF309.5
aF336.5
aF352.4
aF401.9
aa(lp158
aF0.978
aa(lp159
(lp160
S'003281'
p161
ag4
ag5
aF6.9
aF115.4
aF113.6
aF209.7
aa(lp162
(lp163
F2.0
aF110.0
aF21.0
aF208.0
aa(lp164
F22.0
aF122.0
aF75.0
aF208.0
aa(lp165
F75.0
aF154.0
aF115.0
aF217.0
aa(lp166
F177.0
aF288.0
aF204.0
aF358.0
aa(lp167
F195.0
aF284.0
aF220.0
aF351.0
aa(lp168
F210.0
aF235.0
aF237.0
aF400.0
aa(lp169
F236.0
aF230.0
aF245.0
aF384.0
aa(lp170
F245.0
aF238.0
aF259.0
aF373.0
aa(lp171
F259.0
aF204.0
aF276.0
aF356.0
aa(lp172
F180.0
aF354.0
aF207.0
aF407.0
aa(lp173
F175.0
aF220.0
aF214.0
aF261.0
aaaF0.977
aa(lp174
(lp175
S'009622'
p176
ag4
ag5
aF398.2
aF140.2
aF455.5
aF216.0
aa(lp177
aF0.977
aa(lp178
(lp179
S'006750'
p180
ag4
ag5
aF174.5
aF44.7
aF202.4
aF85.2
aa(lp181
(lp182
F176.0
aF16.0
aF198.0
aF84.0
aa(lp183
F162.0
aF33.0
aF192.0
aF92.0
aaaF0.976
aa(lp184
(lp185
S'003626'
p186
ag4
ag5
aF66.9
aF67.3
aF275.9
aF473.0
aa(lp187
(lp188
F14.0
aF149.0
aF233.0
aF313.0
aa(lp189
F2.0
aF51.0
aF219.0
aF192.0
aa(lp190
F92.0
aF295.0
aF252.0
aF477.0
aaaF0.975
aa(lp191
(lp192
S'001070'
p193
ag4
ag5
aF73.9
aF1.5
aF180.9
aF357.0
aa(lp194
(lp195
F89.0
aF15.0
aF174.0
aF108.0
aa(lp196
F177.0
aF5.0
aF263.0
aF116.0
aa(lp197
F269.0
aF5.0
aF348.0
aF119.0
aa(lp198
F90.0
aF70.0
aF189.0
aF206.0
aa(lp199
F175.0
aF125.0
aF279.0
aF216.0
aa(lp200
F284.0
aF10.0
aF404.0
aF215.0
aa(lp201
F369.0
aF51.0
aF454.0
aF170.0
aa(lp202
F74.0
aF204.0
aF169.0
aF329.0
aa(lp203
F137.0
aF210.0
aF288.0
aF325.0
aa(lp204
F281.0
aF219.0
aF422.0
aF329.0
aa(lp205
F362.0
aF208.0
aF478.0
aF322.0
aa(lp206
F400.0
aF267.0
aF499.0
aF357.0
aa(lp207
F106.0
aF327.0
aF230.0
aF401.0
aa(lp208
F230.0
aF335.0
aF301.0
aF401.0
aaaF0.974
aa(lp209
(lp210
S'002792'
p211
ag4
ag5
aF293.3
aF24.6
aF379.1
aF133.2
aa(lp212
aF0.972
aa(lp213
(lp214
S'001391'
p215
ag4
ag5
aF350.9
aF1.0
aF450.7
aF173.3
aa(lp216
(lp217
F386.0
aF61.0
aF443.0
aF135.0
aa(lp218
F360.0
aF16.0
aF407.0
aF86.0
aaaF0.972
aa(lp219
(lp220
S'001829'
p221
ag4
ag5
aF194.4
aF78.2
aF369.0
aF469.8
aa(lp222
aF0.972
aa(lp223
(lp224
S'000234'
p225
ag4
ag5
aF7.8
aF125.5
aF85.6
aF212.8
aa(lp226
(lp227
F61.0
aF231.0
aF135.0
aF316.0
aa(lp228
F11.0
aF150.0
aF75.0
aF201.0
aa(lp229
F12.0
aF51.0
aF220.0
aF228.0
aaaF0.971
aa(lp230
(lp231
S'001712'
p232
ag4
ag5
aF1.0
aF219.2
aF83.0
aF285.3
aa(lp233
(lp234
F2.0
aF216.0
aF131.0
aF375.0
aaaF0.971
aa(lp235
(lp236
S'004366'
p237
ag4
ag5
aF287.6
aF153.6
aF323.7
aF236.9
aa(lp238
aF0.971
aa(lp239
(lp240
S'004964'
p241
ag4
ag5
aF242.3
aF150.2
aF307.5
aF185.6
aa(lp242
aF0.971
aa(lp243
(lp244
S'001139'
p245
ag4
ag5
aF10.8
aF102.8
aF44.6
aF140.0
aa(lp246
aF0.971
aa(lp247
(lp248
S'007051'
p249
ag4
ag5
aF228.8
aF30.9
aF368.7
aF370.5
aa(lp250
aF0.97
aa(lp251
(lp252
S'008754'
p253
ag4
ag5
aF238.6
aF252.8
aF270.6
aF316.8
aa(lp254
(lp255
F327.0
aF153.0
aF355.0
aF301.0
aa(lp256
F291.0
aF162.0
aF337.0
aF323.0
aa(lp257
F229.0
aF165.0
aF269.0
aF318.0
aa(lp258
F101.0
aF167.0
aF135.0
aF205.0
aaaF0.97
aa(lp259
(lp260
S'009916'
p261
ag4
ag5
aF255.7
aF121.5
aF324.5
aF183.6
aa(lp262
aF0.969
aa(lp263
(lp264
S'007684'
p265
ag4
ag5
aF235.2
aF236.0
aF400.4
aF375.0
aa(lp266
aF0.969
aa(lp267
(lp268
S'003787'
p269
ag4
ag5
aF291.3
aF31.9
aF420.1
aF301.3
aa(lp270
(lp271
F199.0
aF179.0
aF309.0
aF282.0
aa(lp272
F312.0
aF134.0
aF415.0
aF281.0
aa(lp273
F304.0
aF41.0
aF500.0
aF254.0
aa(lp274
F16.0
aF1.0
aF200.0
aF269.0
aaaF0.969
aa(lp275
(lp276
S'004045'
p277
ag4
ag5
aF326.0
aF10.8
aF457.3
aF227.3
aa(lp278
(lp279
F351.0
aF9.0
aF441.0
aF145.0
aaaF0.968
aa(lp280
(lp281
S'002339'
p282
ag4
ag5
aF214.0
aF58.0
aF350.4
aF262.9
aa(lp283
(lp284
F231.0
aF156.0
aF338.0
aF257.0
aaaF0.968
aa(lp285
(lp286
S'001452'
p287
ag4
ag5
aF279.0
aF192.0
aF305.9
aF245.5
aa(lp288
aF0.967
aa(lp289
(lp290
S'009602'
p291
ag4
ag5
aF15.8
aF1.0
aF242.9
aF318.8
aa(lp292
(lp293
F334.0
aF104.0
aF469.0
aF250.0
aa(lp294
F169.0
aF31.0
aF333.0
aF184.0
aa(lp295
F2.0
aF2.0
aF186.0
aF199.0
aa(lp296
F118.0
aF117.0
aF231.0
aF245.0
aa(lp297
F229.0
aF154.0
aF344.0
aF269.0
aa(lp298
F273.0
aF244.0
aF401.0
aF372.0
aa(lp299
F143.0
aF209.0
aF273.0
aF359.0
aa(lp300
F27.0
aF192.0
aF152.0
aF329.0
aaaF0.967
aa(lp301
(lp302
S'002813'
p303
ag4
ag5
aF54.2
aF141.9
aF133.4
aF264.2
aa(lp304
aF0.966
aa(lp305
(lp306
S'008850'
p307
ag4
ag5
aF280.0
aF7.6
aF392.3
aF86.2
aa(lp308
(lp309
F272.0
aF10.0
aF401.0
aF145.0
aa(lp310
F170.0
aF26.0
aF318.0
aF224.0
aa(lp311
F73.0
aF150.0
aF246.0
aF328.0
aa(lp312
F9.0
aF239.0
aF72.0
aF330.0
aaaF0.966
aa(lp313
(lp314
S'007644'
p315
ag4
ag5
aF83.2
aF167.9
aF137.4
aF256.0
aa(lp316
(lp317
F263.0
aF43.0
aF361.0
aF111.0
aa(lp318
F10.0
aF48.0
aF36.0
aF87.0
aa(lp319
F27.0
aF46.0
aF54.0
aF87.0
aa(lp320
F73.0
aF24.0
aF120.0
aF171.0
aa(lp321
F72.0
aF135.0
aF144.0
aF224.0
aa(lp322
F83.0
aF142.0
aF205.0
aF249.0
aa(lp323
F2.0
aF84.0
aF55.0
aF279.0
aa(lp324
F1.0
aF281.0
aF53.0
aF358.0
aa(lp325
F3.0
aF256.0
aF40.0
aF290.0
aa(lp326
F49.0
aF226.0
aF149.0
aF355.0
aa(lp327
F325.0
aF239.0
aF480.0
aF360.0
aa(lp328
F351.0
aF125.0
aF404.0
aF199.0
aa(lp329
F312.0
aF125.0
aF348.0
aF202.0
aa(lp330
F269.0
aF148.0
aF304.0
aF199.0
aa(lp331
F220.0
aF142.0
aF266.0
aF197.0
aa(lp332
F386.0
aF183.0
aF418.0
aF222.0
aa(lp333
F415.0
aF192.0
aF440.0
aF229.0
aa(lp334
F434.0
aF186.0
aF466.0
aF227.0
aa(lp335
F409.0
aF138.0
aF460.0
aF206.0
aaaF0.965
aa(lp336
(lp337
S'004881'
p338
ag4
ag5
aF271.3
aF165.7
aF305.8
aF212.5
aa(lp339
aF0.965
aa(lp340
(lp341
S'002353'
p342
ag4
ag5
aF65.1
aF160.0
aF156.4
aF246.2
aa(lp343
aF0.965
aa(lp344
(lp345
S'008389'
p346
ag4
ag5
aF43.0
aF1.0
aF449.1
aF375.0
aa(lp347
(lp348
F436.0
aF1.0
aF500.0
aF86.0
aa(lp349
F474.0
aF48.0
aF500.0
aF98.0
aa(lp350
F356.0
aF121.0
aF475.0
aF257.0
aa(lp351
F1.0
aF195.0
aF132.0
aF375.0
aa(lp352
F18.0
aF4.0
aF293.0
aF259.0
aa(lp353
F155.0
aF143.0
aF334.0
aF338.0
aa(lp354
F298.0
aF111.0
aF373.0
aF209.0
aa(lp355
F274.0
aF214.0
aF415.0
aF329.0
aa(lp356
F228.0
aF326.0
aF352.0
aF375.0
aaaF0.962
aa(lp357
(lp358
S'008678'
p359
ag4
ag5
aF305.3
aF283.4
aF375.0
aF335.0
aa(lp360
aF0.961
aa(lp361
(lp362
S'004858'
p363
ag4
ag5
aF1.0
aF1.0
aF483.2
aF375.0
aa(lp364
(lp365
F397.0
aF1.0
aF500.0
aF158.0
aaaF0.961
aa(lp366
(lp367
S'008185'
p368
ag4
ag5
aF163.0
aF206.0
aF286.1
aF397.0
aa(lp369
(lp370
F1.0
aF214.0
aF312.0
aF482.0
aaaF0.959
aa(lp371
(lp372
S'001162'
p373
ag4
ag5
aF163.5
aF13.1
aF251.5
aF120.3
aa(lp374
aF0.958
aa(lp375
(lp376
S'003281'
p377
ag4
ag5
aF306.7
aF224.6
aF364.0
aF296.7
aa(lp378
(lp379
F2.0
aF110.0
aF21.0
aF208.0
aa(lp380
F22.0
aF122.0
aF75.0
aF208.0
aa(lp381
F75.0
aF154.0
aF115.0
aF217.0
aa(lp382
F177.0
aF288.0
aF204.0
aF358.0
aa(lp383
F195.0
aF284.0
aF220.0
aF351.0
aa(lp384
F210.0
aF235.0
aF237.0
aF400.0
aa(lp385
F236.0
aF230.0
aF245.0
aF384.0
aa(lp386
F245.0
aF238.0
aF259.0
aF373.0
aa(lp387
F259.0
aF204.0
aF276.0
aF356.0
aa(lp388
F180.0
aF354.0
aF207.0
aF407.0
aa(lp389
F175.0
aF220.0
aF214.0
aF261.0
aaaF0.958
aa(lp390
(lp391
S'003771'
p392
ag4
ag5
aF12.8
aF238.9
aF116.1
aF375.0
aa(lp393
aF0.956
aa(lp394
(lp395
S'003113'
p396
ag4
ag5
aF278.7
aF22.5
aF399.2
aF163.5
aa(lp397
(lp398
F288.0
aF4.0
aF497.0
aF213.0
aa(lp399
F302.0
aF19.0
aF335.0
aF67.0
aaaF0.953
aa(lp400
(lp401
S'009771'
p402
ag4
ag5
aF66.7
aF83.9
aF89.2
aF127.4
aa(lp403
aF0.952
aa(lp404
(lp405
S'002035'
p406
ag4
ag5
aF79.4
aF40.0
aF140.1
aF164.5
aa(lp407
(lp408
F266.0
aF54.0
aF406.0
aF180.0
aa(lp409
F89.0
aF102.0
aF128.0
aF162.0
aa(lp410
F14.0
aF1.0
aF104.0
aF132.0
aa(lp411
F130.0
aF103.0
aF182.0
aF146.0
aa(lp412
F146.0
aF38.0
aF183.0
aF107.0
aaaF0.951
aa(lp413
(lp414
S'003448'
p415
ag4
ag5
aF73.5
aF86.4
aF132.0
aF177.1
aa(lp416
(lp417
F274.0
aF309.0
aF313.0
aF349.0
aa(lp418
F247.0
aF277.0
aF287.0
aF327.0
aa(lp419
F282.0
aF206.0
aF330.0
aF330.0
aa(lp420
F456.0
aF293.0
aF480.0
aF329.0
aa(lp421
F465.0
aF227.0
aF480.0
aF265.0
aa(lp422
F462.0
aF169.0
aF480.0
aF205.0
aa(lp423
F462.0
aF108.0
aF480.0
aF145.0
aa(lp424
F455.0
aF45.0
aF480.0
aF91.0
aa(lp425
F462.0
aF1.0
aF480.0
aF41.0
aa(lp426
F294.0
aF171.0
aF375.0
aF250.0
aa(lp427
F230.0
aF57.0
aF293.0
aF242.0
aa(lp428
F191.0
aF210.0
aF223.0
aF239.0
aa(lp429
F164.0
aF175.0
aF203.0
aF224.0
aa(lp430
F77.0
aF82.0
aF205.0
aF170.0
aa(lp431
F22.0
aF203.0
aF51.0
aF245.0
aa(lp432
F1.0
aF231.0
aF19.0
aF258.0
aa(lp433
F1.0
aF199.0
aF26.0
aF244.0
aaaF0.95
aa(lp434
(lp435
S'003643'
p436
ag4
ag5
aF65.9
aF233.1
aF89.6
aF270.9
aa(lp437
aF0.95
aa(lp438
(lp439
S'000719'
p440
ag4
ag5
aF402.4
aF89.1
aF450.9
aF135.4
aa(lp441
aF0.95
aa(lp442
(lp443
S'001869'
p444
ag4
ag5
aF144.5
aF179.8
aF358.8
aF326.9
aa(lp445
(lp446
F132.0
aF3.0
aF440.0
aF338.0
aaaF0.949
aa(lp447
(lp448
S'006068'
p449
ag4
ag5
aF121.6
aF5.2
aF196.5
aF140.9
aa(lp450
aF0.949
aa(lp451
(lp452
S'008328'
p453
ag4
ag5
aF316.3
aF110.4
aF371.8
aF188.4
aa(lp454
aF0.948
aa(lp455
(lp456
S'002644'
p457
ag4
ag5
aF9.2
aF223.0
aF128.1
aF342.4
aa(lp458
aF0.948
aa(lp459
(lp460
S'005567'
p461
ag4
ag5
aF148.8
aF118.9
aF354.8
aF357.7
aa(lp462
(lp463
F175.0
aF214.0
aF306.0
aF366.0
aa(lp464
F161.0
aF145.0
aF302.0
aF223.0
aa(lp465
F3.0
aF2.0
aF83.0
aF139.0
aaaF0.945
aa(lp466
(lp467
S'004893'
p468
ag4
ag5
aF224.6
aF5.2
aF281.3
aF76.0
aa(lp469
(lp470
F241.0
aF130.0
aF307.0
aF189.0
aaaF0.945
aa(lp471
(lp472
S'004081'
p473
ag4
ag5
aF43.8
aF128.1
aF255.4
aF373.9
aa(lp474
(lp475
F284.0
aF103.0
aF500.0
aF375.0
aaaF0.944
aa(lp476
(lp477
S'007644'
p478
ag4
ag5
aF234.8
aF155.1
aF266.8
aF195.4
aa(lp479
(lp480
F263.0
aF43.0
aF361.0
aF111.0
aa(lp481
F10.0
aF48.0
aF36.0
aF87.0
aa(lp482
F27.0
aF46.0
aF54.0
aF87.0
aa(lp483
F73.0
aF24.0
aF120.0
aF171.0
aa(lp484
F72.0
aF135.0
aF144.0
aF224.0
aa(lp485
F83.0
aF142.0
aF205.0
aF249.0
aa(lp486
F2.0
aF84.0
aF55.0
aF279.0
aa(lp487
F1.0
aF281.0
aF53.0
aF358.0
aa(lp488
F3.0
aF256.0
aF40.0
aF290.0
aa(lp489
F49.0
aF226.0
aF149.0
aF355.0
aa(lp490
F325.0
aF239.0
aF480.0
aF360.0
aa(lp491
F351.0
aF125.0
aF404.0
aF199.0
aa(lp492
F312.0
aF125.0
aF348.0
aF202.0
aa(lp493
F269.0
aF148.0
aF304.0
aF199.0
aa(lp494
F220.0
aF142.0
aF266.0
aF197.0
aa(lp495
F386.0
aF183.0
aF418.0
aF222.0
aa(lp496
F415.0
aF192.0
aF440.0
aF229.0
aa(lp497
F434.0
aF186.0
aF466.0
aF227.0
aa(lp498
F409.0
aF138.0
aF460.0
aF206.0
aaaF0.944
aa(lp499
(lp500
S'008238'
p501
ag4
ag5
aF44.4
aF133.0
aF147.9
aF215.6
aa(lp502
aF0.941
aa(lp503
(lp504
S'001489'
p505
ag4
ag5
aF1.0
aF148.0
aF122.2
aF238.6
aa(lp506
aF0.941
aa(lp507
(lp508
S'008457'
p509
ag4
ag5
aF38.9
aF31.0
aF172.0
aF279.3
aa(lp510
(lp511
F54.0
aF43.0
aF160.0
aF169.0
aa(lp512
F34.0
aF180.0
aF109.0
aF280.0
aa(lp513
F116.0
aF227.0
aF184.0
aF278.0
aa(lp514
F34.0
aF298.0
aF84.0
aF373.0
aa(lp515
F131.0
aF293.0
aF181.0
aF373.0
aa(lp516
F37.0
aF412.0
aF92.0
aF487.0
aaaF0.938
aa(lp517
(lp518
S'002297'
p519
ag4
ag5
aF269.0
aF91.0
aF302.4
aF132.6
aa(lp520
(lp521
F264.0
aF92.0
aF291.0
aF124.0
aaaF0.938
aa(lp522
(lp523
S'001871'
p524
ag4
ag5
aF9.3
aF208.6
aF66.2
aF270.7
aa(lp525
aF0.937
aa(lp526
(lp527
S'002092'
p528
ag4
ag5
aF187.7
aF279.3
aF241.3
aF317.7
aa(lp529
aF0.937
aa(lp530
(lp531
S'006115'
p532
ag4
ag5
aF14.6
aF71.6
aF95.9
aF323.6
aa(lp533
(lp534
F4.0
aF39.0
aF192.0
aF222.0
aaaF0.936
aa(lp535
(lp536
S'007644'
p537
ag4
ag5
aF4.3
aF185.4
aF48.5
aF268.9
aa(lp538
(lp539
F263.0
aF43.0
aF361.0
aF111.0
aa(lp540
F10.0
aF48.0
aF36.0
aF87.0
aa(lp541
F27.0
aF46.0
aF54.0
aF87.0
aa(lp542
F73.0
aF24.0
aF120.0
aF171.0
aa(lp543
F72.0
aF135.0
aF144.0
aF224.0
aa(lp544
F83.0
aF142.0
aF205.0
aF249.0
aa(lp545
F2.0
aF84.0
aF55.0
aF279.0
aa(lp546
F1.0
aF281.0
aF53.0
aF358.0
aa(lp547
F3.0
aF256.0
aF40.0
aF290.0
aa(lp548
F49.0
aF226.0
aF149.0
aF355.0
aa(lp549
F325.0
aF239.0
aF480.0
aF360.0
aa(lp550
F351.0
aF125.0
aF404.0
aF199.0
aa(lp551
F312.0
aF125.0
aF348.0
aF202.0
aa(lp552
F269.0
aF148.0
aF304.0
aF199.0
aa(lp553
F220.0
aF142.0
aF266.0
aF197.0
aa(lp554
F386.0
aF183.0
aF418.0
aF222.0
aa(lp555
F415.0
aF192.0
aF440.0
aF229.0
aa(lp556
F434.0
aF186.0
aF466.0
aF227.0
aa(lp557
F409.0
aF138.0
aF460.0
aF206.0
aaaF0.935
aa(lp558
(lp559
S'007335'
p560
ag4
ag5
aF2.7
aF86.5
aF30.9
aF118.2
aa(lp561
(lp562
F79.0
aF168.0
aF134.0
aF237.0
aa(lp563
F166.0
aF75.0
aF194.0
aF127.0
aa(lp564
F79.0
aF146.0
aF104.0
aF175.0
aa(lp565
F165.0
aF139.0
aF186.0
aF176.0
aaaF0.932
aa(lp566
(lp567
S'005922'
p568
ag4
ag5
aF16.2
aF37.9
aF243.0
aF357.9
aa(lp569
(lp570
F71.0
aF245.0
aF194.0
aF367.0
aa(lp571
F226.0
aF252.0
aF344.0
aF352.0
aa(lp572
F2.0
aF250.0
aF73.0
aF349.0
aaaF0.932
aa(lp573
(lp574
S'003348'
p575
ag4
ag5
aF418.9
aF156.5
aF497.6
aF304.1
aa(lp576
aF0.932
aa(lp577
(lp578
S'003281'
p579
ag4
ag5
aF221.1
aF196.6
aF307.3
aF396.6
aa(lp580
(lp581
F2.0
aF110.0
aF21.0
aF208.0
aa(lp582
F22.0
aF122.0
aF75.0
aF208.0
aa(lp583
F75.0
aF154.0
aF115.0
aF217.0
aa(lp584
F177.0
aF288.0
aF204.0
aF358.0
aa(lp585
F195.0
aF284.0
aF220.0
aF351.0
aa(lp586
F210.0
aF235.0
aF237.0
aF400.0
aa(lp587
F236.0
aF230.0
aF245.0
aF384.0
aa(lp588
F245.0
aF238.0
aF259.0
aF373.0
aa(lp589
F259.0
aF204.0
aF276.0
aF356.0
aa(lp590
F180.0
aF354.0
aF207.0
aF407.0
aa(lp591
F175.0
aF220.0
aF214.0
aF261.0
aaaF0.931
aa(lp592
(lp593
S'008487'
p594
ag4
ag5
aF426.7
aF128.8
aF494.1
aF187.9
aa(lp595
aF0.93
aa(lp596
(lp597
S'002510'
p598
ag4
ag5
aF200.5
aF59.8
aF242.2
aF122.4
aa(lp599
(lp600
F143.0
aF4.0
aF174.0
aF103.0
aaaF0.93
aa(lp601
(lp602
S'009379'
p603
ag4
ag5
aF457.8
aF177.8
aF500.0
aF247.9
aa(lp604
aF0.928
aa(lp605
(lp606
S'003020'
p607
ag4
ag5
aF379.7
aF36.1
aF480.4
aF348.0
aa(lp608
(lp609
F405.0
aF205.0
aF444.0
aF245.0
aa(lp610
F415.0
aF270.0
aF450.0
aF325.0
aaaF0.927
aa(lp611
(lp612
S'008751'
p613
ag4
ag5
aF260.9
aF199.2
aF309.0
aF277.7
aa(lp614
aF0.926
aa(lp615
(lp616
S'006516'
p617
ag4
ag5
aF425.2
aF27.7
aF467.1
aF89.5
aa(lp618
aF0.925
aa(lp619
(lp620
S'008271'
p621
ag4
ag5
aF196.9
aF130.9
aF263.0
aF226.7
aa(lp622
(lp623
F206.0
aF135.0
aF265.0
aF320.0
aa(lp624
F136.0
aF209.0
aF153.0
aF259.0
aa(lp625
F198.0
aF196.0
aF213.0
aF267.0
aaaF0.924
aa(lp626
(lp627
S'000719'
p628
ag4
ag5
aF257.0
aF134.9
aF282.5
aF166.2
aa(lp629
aF0.924
aa(lp630
(lp631
S'009645'
p632
ag4
ag5
aF114.1
aF7.0
aF201.4
aF224.7
aa(lp633
aF0.923
aa(lp634
(lp635
S'000389'
p636
ag4
ag5
aF13.7
aF218.8
aF123.7
aF418.5
aa(lp637
(lp638
F76.0
aF207.0
aF118.0
aF269.0
aa(lp639
F7.0
aF256.0
aF194.0
aF434.0
aaaF0.92
aa(lp640
(lp641
S'002743'
p642
ag4
ag5
aF94.6
aF102.8
aF199.1
aF205.0
aa(lp643
(lp644
F358.0
aF114.0
aF409.0
aF223.0
aa(lp645
F160.0
aF8.0
aF444.0
aF229.0
aa(lp646
F122.0
aF94.0
aF261.0
aF223.0
aa(lp647
F26.0
aF93.0
aF189.0
aF229.0
aaaF0.92
aa(lp648
(lp649
S'000573'
p650
ag4
ag5
aF15.2
aF5.7
aF164.2
aF222.0
aa(lp651
aF0.92
aa(lp652
(lp653
S'003221'
p654
ag4
ag5
aF209.4
aF223.4
aF241.1
aF250.3
aa(lp655
(lp656
F299.0
aF268.0
aF352.0
aF315.0
aa(lp657
F213.0
aF230.0
aF232.0
aF254.0
aa(lp658
F196.0
aF229.0
aF216.0
aF254.0
aa(lp659
F264.0
aF226.0
aF281.0
aF251.0
aa(lp660
F243.0
aF222.0
aF263.0
aF252.0
aaaF0.919
aa(lp661
(lp662
S'007917'
p663
ag4
ag5
aF77.6
aF3.8
aF147.7
aF57.3
aa(lp664
aF0.915
aa(lp665
(lp666
S'009172'
p667
ag4
ag5
aF287.3
aF35.7
aF421.9
aF320.7
aa(lp668
(lp669
F1.0
aF197.0
aF38.0
aF288.0
aa(lp670
F1.0
aF15.0
aF185.0
aF272.0
aa(lp671
F154.0
aF142.0
aF263.0
aF265.0
aa(lp672
F181.0
aF30.0
aF316.0
aF244.0
aa(lp673
F239.0
aF150.0
aF316.0
aF281.0
aa(lp674
F258.0
aF100.0
aF412.0
aF246.0
aa(lp675
F295.0
aF217.0
aF376.0
aF317.0
aa(lp676
F350.0
aF230.0
aF429.0
aF337.0
aa(lp677
F394.0
aF167.0
aF500.0
aF374.0
aaaF0.914
aa(lp678
(lp679
S'003882'
p680
ag4
ag5
aF198.1
aF124.1
aF480.0
aF307.4
aa(lp681
(lp682
F54.0
aF83.0
aF151.0
aF155.0
aa(lp683
F129.0
aF102.0
aF206.0
aF166.0
aa(lp684
F181.0
aF93.0
aF267.0
aF172.0
aa(lp685
F237.0
aF117.0
aF326.0
aF187.0
aa(lp686
F302.0
aF119.0
aF400.0
aF200.0
aa(lp687
F375.0
aF140.0
aF491.0
aF293.0
aa(lp688
F12.0
aF142.0
aF89.0
aF243.0
aa(lp689
F58.0
aF143.0
aF143.0
aF255.0
aa(lp690
F112.0
aF156.0
aF202.0
aF275.0
aa(lp691
F159.0
aF157.0
aF258.0
aF298.0
aa(lp692
F227.0
aF171.0
aF337.0
aF321.0
aa(lp693
F302.0
aF177.0
aF426.0
aF333.0
aaaF0.914
aa(lp694
(lp695
S'001431'
p696
ag4
ag5
aF169.2
aF162.6
aF302.6
aF234.2
aa(lp697
aF0.912
aa(lp698
(lp699
S'009090'
p700
ag4
ag5
aF194.6
aF180.8
aF233.8
aF240.7
aa(lp701
aF0.911
aa(lp702
(lp703
S'001665'
p704
ag4
ag5
aF356.1
aF264.9
aF500.0
aF360.1
aa(lp705
(lp706
F364.0
aF202.0
aF415.0
aF269.0
aaaF0.91
aa(lp707
(lp708
S'008233'
p709
ag4
ag5
aF407.1
aF2.9
aF463.3
aF107.6
aa(lp710
aF0.905
aa(lp711
(lp712
S'000058'
p713
ag4
ag5
aF22.1
aF1.4
aF270.5
aF180.8
aa(lp714
aF0.904
aa(lp715
(lp716
S'002381'
p717
ag4
ag5
aF52.3
aF269.7
aF242.0
aF475.6
aa(lp718
(lp719
F195.0
aF378.0
aF284.0
aF471.0
aaaF0.904
aa(lp720
(lp721
S'001251'
p722
ag4
ag5
aF376.2
aF158.7
aF423.2
aF227.3
aa(lp723
aF0.903
aa(lp724
(lp725
S'001674'
p726
ag4
ag5
aF186.9
aF203.3
aF278.1
aF262.9
aa(lp727
aF0.903
aa(lp728
(lp729
S'009581'
p730
ag4
ag5
aF45.4
aF123.2
aF139.4
aF239.8
aa(lp731
(lp732
F9.0
aF22.0
aF171.0
aF266.0
aa(lp733
F137.0
aF216.0
aF224.0
aF265.0
aa(lp734
F178.0
aF121.0
aF325.0
aF264.0
aa(lp735
F335.0
aF124.0
aF500.0
aF275.0
aaaF0.901
aa(lp736
(lp737
S'005525'
p738
ag4
ag5
aF43.4
aF47.0
aF308.8
aF337.9
aa(lp739
(lp740
F169.0
aF6.0
aF500.0
aF344.0
aaaF0.899
aa(lp741
(lp742
S'005725'
p743
ag4
ag5
aF26.8
aF15.4
aF124.3
aF274.7
aa(lp744
aF0.898
aa(lp745
(lp746
S'006776'
p747
ag4
ag5
aF179.6
aF22.8
aF500.0
aF375.0
aa(lp748
(lp749
F271.0
aF144.0
aF446.0
aF363.0
aa(lp750
F363.0
aF64.0
aF461.0
aF232.0
aaaF0.897
aa(lp751
(lp752
S'001275'
p753
ag4
ag5
aF464.3
aF132.8
aF500.0
aF194.7
aa(lp754
aF0.896
aa(lp755
(lp756
S'008547'
p757
ag4
ag5
aF16.3
aF124.8
aF131.2
aF293.0
aa(lp758
(lp759
F330.0
aF170.0
aF443.0
aF298.0
aa(lp760
F240.0
aF63.0
aF377.0
aF295.0
aa(lp761
F150.0
aF46.0
aF255.0
aF300.0
aa(lp762
F25.0
aF155.0
aF108.0
aF249.0
aaaF0.895
aa(lp763
(lp764
S'003755'
p765
ag4
ag5
aF30.8
aF127.7
aF79.0
aF204.1
aa(lp766
aF0.891
aa(lp767
(lp768
S'000385'
p769
ag4
ag5
aF78.5
aF102.4
aF145.7
aF175.5
aa(lp770
aF0.888
aa(lp771
(lp772
S'007676'
p773
ag4
ag5
aF14.8
aF123.9
aF89.3
aF218.9
aa(lp774
aF0.883
aa(lp775
(lp776
S'001867'
p777
ag4
ag5
aF253.7
aF24.0
aF347.7
aF215.0
aa(lp778
(lp779
F85.0
aF191.0
aF103.0
aF207.0
aa(lp780
F164.0
aF190.0
aF186.0
aF203.0
aa(lp781
F251.0
aF194.0
aF268.0
aF207.0
aa(lp782
F341.0
aF202.0
aF360.0
aF219.0
aaaF0.881
aa(lp783
(lp784
S'002574'
p785
ag4
ag5
aF384.9
aF52.7
aF451.5
aF123.9
aa(lp786
aF0.881
aa(lp787
(lp788
S'008661'
p789
ag4
ag5
aF294.5
aF157.9
aF330.2
aF236.8
aa(lp790
(lp791
F5.0
aF157.0
aF47.0
aF225.0
aa(lp792
F167.0
aF168.0
aF202.0
aF233.0
aa(lp793
F288.0
aF168.0
aF314.0
aF232.0
aaaF0.878
aa(lp794
(lp795
S'002575'
p796
ag4
ag5
aF353.3
aF320.7
aF421.9
aF376.4
aa(lp797
aF0.878
aa(lp798
(lp799
S'003448'
p800
ag4
ag5
aF166.3
aF89.7
aF201.8
aF169.1
aa(lp801
(lp802
F274.0
aF309.0
aF313.0
aF349.0
aa(lp803
F247.0
aF277.0
aF287.0
aF327.0
aa(lp804
F282.0
aF206.0
aF330.0
aF330.0
aa(lp805
F456.0
aF293.0
aF480.0
aF329.0
aa(lp806
F465.0
aF227.0
aF480.0
aF265.0
aa(lp807
F462.0
aF169.0
aF480.0
aF205.0
aa(lp808
F462.0
aF108.0
aF480.0
aF145.0
aa(lp809
F455.0
aF45.0
aF480.0
aF91.0
aa(lp810
F462.0
aF1.0
aF480.0
aF41.0
aa(lp811
F294.0
aF171.0
aF375.0
aF250.0
aa(lp812
F230.0
aF57.0
aF293.0
aF242.0
aa(lp813
F191.0
aF210.0
aF223.0
aF239.0
aa(lp814
F164.0
aF175.0
aF203.0
aF224.0
aa(lp815
F77.0
aF82.0
aF205.0
aF170.0
aa(lp816
F22.0
aF203.0
aF51.0
aF245.0
aa(lp817
F1.0
aF231.0
aF19.0
aF258.0
aa(lp818
F1.0
aF199.0
aF26.0
aF244.0
aaaF0.877
aa(lp819
(lp820
S'001437'
p821
ag4
ag5
aF39.4
aF25.7
aF418.2
aF272.5
aa(lp822
(lp823
F3.0
aF78.0
aF44.0
aF264.0
aa(lp824
F43.0
aF57.0
aF160.0
aF241.0
aa(lp825
F19.0
aF100.0
aF97.0
aF277.0
aaaF0.876
aa(lp826
(lp827
S'005866'
p828
ag4
ag5
aF382.5
aF159.0
aF495.6
aF289.3
aa(lp829
(lp830
F348.0
aF215.0
aF367.0
aF247.0
aa(lp831
F365.0
aF217.0
aF391.0
aF257.0
aa(lp832
F384.0
aF172.0
aF415.0
aF260.0
aa(lp833
F465.0
aF248.0
aF496.0
aF289.0
aa(lp834
F157.0
aF137.0
aF263.0
aF294.0
aaaF0.875
aa(lp835
(lp836
S'006700'
p837
ag4
ag5
aF34.2
aF20.4
aF307.6
aF334.0
aa(lp838
(lp839
F143.0
aF1.0
aF349.0
aF347.0
aaaF0.874
aa(lp840
(lp841
S'003113'
p842
ag4
ag5
aF377.6
aF31.0
aF491.3
aF211.0
aa(lp843
(lp844
F288.0
aF4.0
aF497.0
aF213.0
aa(lp845
F302.0
aF19.0
aF335.0
aF67.0
aaaF0.874
aa(lp846
(lp847
S'008591'
p848
ag4
ag5
aF117.4
aF238.6
aF311.4
aF422.9
aa(lp849
aF0.874
aa(lp850
(lp851
S'009115'
p852
ag4
ag5
aF445.8
aF203.7
aF498.2
aF296.4
aa(lp853
aF0.872
aa(lp854
(lp855
S'001969'
p856
ag4
ag5
aF2.8
aF195.8
aF21.6
aF245.6
aa(lp857
aF0.871
aa(lp858
(lp859
S'001471'
p860
ag4
ag5
aF116.8
aF187.1
aF144.2
aF227.7
aa(lp861
aF0.869
aa(lp862
(lp863
S'007644'
p864
ag4
ag5
aF46.6
aF37.9
aF148.6
aF278.2
aa(lp865
(lp866
F263.0
aF43.0
aF361.0
aF111.0
aa(lp867
F10.0
aF48.0
aF36.0
aF87.0
aa(lp868
F27.0
aF46.0
aF54.0
aF87.0
aa(lp869
F73.0
aF24.0
aF120.0
aF171.0
aa(lp870
F72.0
aF135.0
aF144.0
aF224.0
aa(lp871
F83.0
aF142.0
aF205.0
aF249.0
aa(lp872
F2.0
aF84.0
aF55.0
aF279.0
aa(lp873
F1.0
aF281.0
aF53.0
aF358.0
aa(lp874
F3.0
aF256.0
aF40.0
aF290.0
aa(lp875
F49.0
aF226.0
aF149.0
aF355.0
aa(lp876
F325.0
aF239.0
aF480.0
aF360.0
aa(lp877
F351.0
aF125.0
aF404.0
aF199.0
aa(lp878
F312.0
aF125.0
aF348.0
aF202.0
aa(lp879
F269.0
aF148.0
aF304.0
aF199.0
aa(lp880
F220.0
aF142.0
aF266.0
aF197.0
aa(lp881
F386.0
aF183.0
aF418.0
aF222.0
aa(lp882
F415.0
aF192.0
aF440.0
aF229.0
aa(lp883
F434.0
aF186.0
aF466.0
aF227.0
aa(lp884
F409.0
aF138.0
aF460.0
aF206.0
aaaF0.866
aa(lp885
(lp886
S'003902'
p887
ag4
ag5
aF205.8
aF80.4
aF272.5
aF259.2
aa(lp888
aF0.864
aa(lp889
(lp890
S'002092'
p891
ag4
ag5
aF33.7
aF270.7
aF90.1
aF312.2
aa(lp892
aF0.864
aa(lp893
(lp894
S'001252'
p895
ag4
ag5
aF30.4
aF114.4
aF67.0
aF195.4
aa(lp896
aF0.862
aa(lp897
(lp898
S'000234'
p899
ag4
ag5
aF86.7
aF86.5
aF166.5
aF161.1
aa(lp900
(lp901
F61.0
aF231.0
aF135.0
aF316.0
aa(lp902
F11.0
aF150.0
aF75.0
aF201.0
aa(lp903
F12.0
aF51.0
aF220.0
aF228.0
aaaF0.862
aa(lp904
(lp905
S'002527'
p906
ag4
ag5
aF10.9
aF103.1
aF131.7
aF500.0
aa(lp907
(lp908
F1.0
aF40.0
aF373.0
aF500.0
aaaF0.861
aa(lp909
(lp910
S'001674'
p911
ag4
ag5
aF190.6
aF213.4
aF218.4
aF264.8
aa(lp912
aF0.86
aa(lp913
(lp914
S'004320'
p915
ag4
ag5
aF44.5
aF15.0
aF335.8
aF269.1
aa(lp916
aF0.859
aa(lp917
(lp918
S'002123'
p919
ag4
ag5
aF33.2
aF139.2
aF71.0
aF257.3
aa(lp920
(lp921
F345.0
aF257.0
aF369.0
aF311.0
aa(lp922
F72.0
aF255.0
aF128.0
aF302.0
aa(lp923
F36.0
aF146.0
aF84.0
aF308.0
aa(lp924
F274.0
aF144.0
aF309.0
aF180.0
aaaF0.856
aa(lp925
(lp926
S'009782'
p927
ag4
ag5
aF55.0
aF5.2
aF118.5
aF62.1
aa(lp928
aF0.854
aa(lp929
(lp930
S'008937'
p931
ag4
ag5
aF3.7
aF83.1
aF93.9
aF334.0
aa(lp932
(lp933
F65.0
aF1.0
aF270.0
aF333.0
aa(lp934
F369.0
aF1.0
aF500.0
aF333.0
aa(lp935
F1.0
aF2.0
aF60.0
aF330.0
aaaF0.853
aa(lp936
(lp937
S'000784'
p938
ag4
ag5
aF2.8
aF167.9
aF63.2
aF267.6
aa(lp939
(lp940
F1.0
aF88.0
aF75.0
aF265.0
aaaF0.85
aa(lp941
(lp942
S'002971'
p943
ag4
ag5
aF83.1
aF62.5
aF188.7
aF191.2
aa(lp944
aF0.849
aa(lp945
(lp946
S'008015'
p947
ag4
ag5
aF293.6
aF1.0
aF497.7
aF320.8
aa(lp948
aF0.848
aa(lp949
(lp950
S'006646'
p951
ag4
ag5
aF129.3
aF300.5
aF158.5
aF366.9
aa(lp952
(lp953
F124.0
aF259.0
aF160.0
aF374.0
aaaF0.848
aa(lp954
(lp955
S'000840'
p956
ag4
ag5
aF238.7
aF158.1
aF265.6
aF189.8
aa(lp957
(lp958
F334.0
aF75.0
aF385.0
aF135.0
aaaF0.847
aa(lp959
(lp960
S'009304'
p961
ag4
ag5
aF179.7
aF289.7
aF272.8
aF375.0
aa(lp962
aF0.843
aa(lp963
(lp964
S'002673'
p965
ag4
ag5
aF477.7
aF149.0
aF500.0
aF198.4
aa(lp966
aF0.842
aa(lp967
(lp968
S'008821'
p969
ag4
ag5
aF191.5
aF185.5
aF280.0
aF256.4
aa(lp970
(lp971
F171.0
aF34.0
aF256.0
aF259.0
aa(lp972
F231.0
aF200.0
aF306.0
aF266.0
aaaF0.841
aa(lp973
(lp974
S'002753'
p975
ag4
ag5
aF267.6
aF218.2
aF318.8
aF251.4
aa(lp976
(lp977
F249.0
aF162.0
aF317.0
aF252.0
aaaF0.839
aa(lp978
(lp979
S'004724'
p980
ag4
ag5
aF437.9
aF141.8
aF460.7
aF182.2
aa(lp981
aF0.839
aa(lp982
(lp983
S'006843'
p984
ag4
ag5
aF391.8
aF135.1
aF438.7
aF201.0
aa(lp985
(lp986
F274.0
aF188.0
aF315.0
aF240.0
aa(lp987
F193.0
aF184.0
aF238.0
aF238.0
aaaF0.838
aa(lp988
(lp989
S'000650'
p990
ag4
ag5
aF111.7
aF176.4
aF204.1
aF360.7
aa(lp991
(lp992
F103.0
aF2.0
aF416.0
aF375.0
aa(lp993
F40.0
aF32.0
aF139.0
aF254.0
aaaF0.838
aa(lp994
(lp995
S'005866'
p996
ag4
ag5
aF262.3
aF18.9
aF399.3
aF274.8
aa(lp997
(lp998
F348.0
aF215.0
aF367.0
aF247.0
aa(lp999
F365.0
aF217.0
aF391.0
aF257.0
aa(lp1000
F384.0
aF172.0
aF415.0
aF260.0
aa(lp1001
F465.0
aF248.0
aF496.0
aF289.0
aa(lp1002
F157.0
aF137.0
aF263.0
aF294.0
aaaF0.835
aa(lp1003
(lp1004
S'009367'
p1005
ag4
ag5
aF1.0
aF92.4
aF50.1
aF169.2
aa(lp1006
(lp1007
F344.0
aF156.0
aF382.0
aF224.0
aaaF0.835
aa(lp1008
(lp1009
S'002557'
p1010
ag4
ag5
aF270.9
aF47.3
aF387.9
aF124.6
aa(lp1011
(lp1012
F421.0
aF76.0
aF466.0
aF172.0
aa(lp1013
F281.0
aF65.0
aF342.0
aF112.0
aa(lp1014
F330.0
aF46.0
aF410.0
aF113.0
aa(lp1015
F196.0
aF2.0
aF261.0
aF108.0
aa(lp1016
F118.0
aF3.0
aF212.0
aF114.0
aa(lp1017
F100.0
aF87.0
aF146.0
aF123.0
aa(lp1018
F63.0
aF89.0
aF103.0
aF128.0
aa(lp1019
F38.0
aF1.0
aF105.0
aF70.0
aa(lp1020
F25.0
aF143.0
aF94.0
aF245.0
aa(lp1021
F169.0
aF177.0
aF224.0
aF230.0
aa(lp1022
F133.0
aF173.0
aF182.0
aF215.0
aa(lp1023
F86.0
aF184.0
aF143.0
aF234.0
aa(lp1024
F228.0
aF188.0
aF291.0
aF238.0
aa(lp1025
F277.0
aF151.0
aF345.0
aF222.0
aa(lp1026
F340.0
aF179.0
aF405.0
aF267.0
aaaF0.827
aa(lp1027
(lp1028
S'002674'
p1029
ag4
ag5
aF118.5
aF237.9
aF155.6
aF317.0
aa(lp1030
aF0.825
aa(lp1031
(lp1032
S'006461'
p1033
ag4
ag5
aF375.9
aF216.5
aF410.4
aF273.9
aa(lp1034
aF0.816
aa(lp1035
(lp1036
S'005525'
p1037
ag4
ag5
aF349.1
aF1.0
aF475.8
aF213.0
aa(lp1038
(lp1039
F169.0
aF6.0
aF500.0
aF344.0
aaaF0.815
aa(lp1040
(lp1041
S'007110'
p1042
ag4
ag5
aF192.4
aF80.8
aF219.7
aF125.6
aa(lp1043
aF0.814
aa(lp1044
(lp1045
S'002081'
p1046
ag4
ag5
aF32.1
aF80.0
aF75.5
aF190.5
aa(lp1047
aF0.813
aa(lp1048
(lp1049
S'007756'
p1050
ag4
ag5
aF253.1
aF212.8
aF290.1
aF262.1
aa(lp1051
aF0.812
aa(lp1052
(lp1053
S'007648'
p1054
ag4
ag5
aF134.1
aF101.5
aF200.7
aF152.9
aa(lp1055
aF0.81
aa(lp1056
(lp1057
S'004664'
p1058
ag4
ag5
aF152.0
aF121.3
aF236.6
aF491.7
aa(lp1059
aF0.809
aa(lp1060
(lp1061
S'006231'
p1062
ag4
ag5
aF230.8
aF370.3
aF352.1
aF500.0
aa(lp1063
(lp1064
F39.0
aF128.0
aF375.0
aF500.0
aaaF0.808
aa(lp1065
(lp1066
S'006068'
p1067
ag4
ag5
aF210.7
aF220.8
aF253.7
aF299.6
aa(lp1068
aF0.804
aa(lp1069
(lp1070
S'007648'
p1071
ag4
ag5
aF459.8
aF185.5
aF500.0
aF275.1
aa(lp1072
aF0.804
aa(lp1073
(lp1074
S'002557'
p1075
ag4
ag5
aF49.0
aF1.0
aF138.3
aF127.1
aa(lp1076
(lp1077
F421.0
aF76.0
aF466.0
aF172.0
aa(lp1078
F281.0
aF65.0
aF342.0
aF112.0
aa(lp1079
F330.0
aF46.0
aF410.0
aF113.0
aa(lp1080
F196.0
aF2.0
aF261.0
aF108.0
aa(lp1081
F118.0
aF3.0
aF212.0
aF114.0
aa(lp1082
F100.0
aF87.0
aF146.0
aF123.0
aa(lp1083
F63.0
aF89.0
aF103.0
aF128.0
aa(lp1084
F38.0
aF1.0
aF105.0
aF70.0
aa(lp1085
F25.0
aF143.0
aF94.0
aF245.0
aa(lp1086
F169.0
aF177.0
aF224.0
aF230.0
aa(lp1087
F133.0
aF173.0
aF182.0
aF215.0
aa(lp1088
F86.0
aF184.0
aF143.0
aF234.0
aa(lp1089
F228.0
aF188.0
aF291.0
aF238.0
aa(lp1090
F277.0
aF151.0
aF345.0
aF222.0
aa(lp1091
F340.0
aF179.0
aF405.0
aF267.0
aaaF0.804
aa(lp1092
(lp1093
S'005616'
p1094
ag4
ag5
aF319.4
aF75.7
aF353.8
aF114.8
aa(lp1095
aF0.801
aa(lp1096
(lp1097
S'005804'
p1098
ag4
ag5
aF433.5
aF165.1
aF500.0
aF352.0
aa(lp1099
(lp1100
F384.0
aF2.0
aF500.0
aF352.0
aa(lp1101
F2.0
aF91.0
aF58.0
aF177.0
aa(lp1102
F134.0
aF89.0
aF185.0
aF171.0
aa(lp1103
F61.0
aF130.0
aF81.0
aF175.0
aaaF0.798
aa(lp1104
(lp1105
S'001141'
p1106
ag4
ag5
aF214.9
aF11.9
aF248.6
aF77.0
aa(lp1107
(lp1108
F219.0
aF23.0
aF245.0
aF41.0
aa(lp1109
F128.0
aF26.0
aF189.0
aF44.0
aaaF0.796
aa(lp1110
(lp1111
S'009090'
p1112
ag4
ag5
aF156.1
aF174.8
aF207.2
aF233.1
aa(lp1113
aF0.792
aa(lp1114
(lp1115
S'009925'
p1116
ag4
ag5
aF335.3
aF115.2
aF496.4
aF324.8
aa(lp1117
(lp1118
F137.0
aF4.0
aF491.0
aF341.0
aaaF0.783
aa(lp1119
(lp1120
S'003643'
p1121
ag4
ag5
aF313.0
aF240.7
aF363.5
aF425.2
aa(lp1122
aF0.783
aa(lp1123
(lp1124
S'005734'
p1125
ag4
ag5
aF254.2
aF106.2
aF397.4
aF195.5
aa(lp1126
aF0.781
aa(lp1127
(lp1128
S'007051'
p1129
ag4
ag5
aF275.9
aF167.4
aF352.3
aF350.5
aa(lp1130
aF0.78
aa(lp1131
(lp1132
S'003801'
p1133
ag4
ag5
aF1.8
aF2.2
aF117.9
aF256.0
aa(lp1134
aF0.776
aa(lp1135
(lp1136
S'004124'
p1137
ag4
ag5
aF128.9
aF93.2
aF237.2
aF228.4
aa(lp1138
(lp1139
F153.0
aF37.0
aF500.0
aF375.0
aa(lp1140
F2.0
aF54.0
aF240.0
aF372.0
aaaF0.772
aa(lp1141
(lp1142
S'003020'
p1143
ag4
ag5
aF402.5
aF191.6
aF454.2
aF256.3
aa(lp1144
(lp1145
F405.0
aF205.0
aF444.0
aF245.0
aa(lp1146
F415.0
aF270.0
aF450.0
aF325.0
aaaF0.771
aa(lp1147
(lp1148
S'003192'
p1149
ag4
ag5
aF8.8
aF57.5
aF110.8
aF316.3
aa(lp1150
(lp1151
F5.0
aF30.0
aF230.0
aF288.0
aa(lp1152
F233.0
aF36.0
aF489.0
aF284.0
aaaF0.77
aa(lp1153
(lp1154
S'007202'
p1155
ag4
ag5
aF30.4
aF114.2
aF52.9
aF156.9
aa(lp1156
aF0.769
aa(lp1157
(lp1158
S'008324'
p1159
ag4
ag5
aF41.8
aF264.6
aF105.6
aF354.1
aa(lp1160
aF0.769
aa(lp1161
(lp1162
S'007391'
p1163
ag4
ag5
aF1.9
aF142.9
aF53.0
aF333.0
aa(lp1164
aF0.768
aa(lp1165
(lp1166
S'005871'
p1167
ag4
ag5
aF163.2
aF61.7
aF290.4
aF166.2
aa(lp1168
aF0.766
aa(lp1169
(lp1170
S'004027'
p1171
ag4
ag5
aF11.4
aF337.1
aF110.5
aF439.7
aa(lp1172
(lp1173
F223.0
aF260.0
aF280.0
aF320.0
aa(lp1174
F178.0
aF22.0
aF333.0
aF401.0
aa(lp1175
F66.0
aF38.0
aF239.0
aF415.0
aa(lp1176
F86.0
aF256.0
aF201.0
aF449.0
aa(lp1177
F1.0
aF214.0
aF124.0
aF417.0
aa(lp1178
F78.0
aF365.0
aF146.0
aF460.0
aa(lp1179
F54.0
aF361.0
aF103.0
aF440.0
aa(lp1180
F17.0
aF348.0
aF71.0
aF433.0
aaaF0.764
aa(lp1181
(lp1182
S'004070'
p1183
ag4
ag5
aF470.7
aF133.0
aF499.1
aF161.6
aa(lp1184
aF0.764
aa(lp1185
(lp1186
S'003572'
p1187
ag4
ag5
aF88.4
aF41.1
aF233.1
aF188.3
aa(lp1188
(lp1189
F143.0
aF178.0
aF300.0
aF377.0
aa(lp1190
F9.0
aF233.0
aF146.0
aF385.0
aa(lp1191
F2.0
aF36.0
aF229.0
aF273.0
aaaF0.762
aa(lp1192
(lp1193
S'000575'
p1194
ag4
ag5
aF133.2
aF14.4
aF306.6
aF262.9
aa(lp1195
(lp1196
F208.0
aF22.0
aF309.0
aF150.0
aa(lp1197
F3.0
aF8.0
aF92.0
aF98.0
aaaF0.757
aa(lp1198
(lp1199
S'000056'
p1200
ag4
ag5
aF52.5
aF190.1
aF156.8
aF298.8
aa(lp1201
aF0.757
aa(lp1202
(lp1203
S'006776'
p1204
ag4
ag5
aF10.4
aF105.2
aF188.2
aF367.3
aa(lp1205
(lp1206
F271.0
aF144.0
aF446.0
aF363.0
aa(lp1207
F363.0
aF64.0
aF461.0
aF232.0
aaaF0.757
aa(lp1208
(lp1209
S'006115'
p1210
ag4
ag5
aF70.3
aF73.8
aF428.0
aF357.5
aa(lp1211
(lp1212
F4.0
aF39.0
aF192.0
aF222.0
aaaF0.757
aa(lp1213
(lp1214
S'005866'
p1215
ag4
ag5
aF14.4
aF124.8
aF195.3
aF357.8
aa(lp1216
(lp1217
F348.0
aF215.0
aF367.0
aF247.0
aa(lp1218
F365.0
aF217.0
aF391.0
aF257.0
aa(lp1219
F384.0
aF172.0
aF415.0
aF260.0
aa(lp1220
F465.0
aF248.0
aF496.0
aF289.0
aa(lp1221
F157.0
aF137.0
aF263.0
aF294.0
aaaF0.756
aa(lp1222
(lp1223
S'002510'
p1224
ag4
ag5
aF231.1
aF152.2
aF336.1
aF333.0
aa(lp1225
(lp1226
F143.0
aF4.0
aF174.0
aF103.0
aaaF0.756
aa(lp1227
(lp1228
S'002035'
p1229
ag4
ag5
aF49.1
aF68.8
aF88.8
aF135.1
aa(lp1230
(lp1231
F266.0
aF54.0
aF406.0
aF180.0
aa(lp1232
F89.0
aF102.0
aF128.0
aF162.0
aa(lp1233
F14.0
aF1.0
aF104.0
aF132.0
aa(lp1234
F130.0
aF103.0
aF182.0
aF146.0
aa(lp1235
F146.0
aF38.0
aF183.0
aF107.0
aaaF0.755
aa(lp1236
(lp1237
S'004362'
p1238
ag4
ag5
aF1.0
aF288.2
aF202.2
aF500.0
aa(lp1239
aF0.755
aa(lp1240
(lp1241
S'004491'
p1242
ag4
ag5
aF57.1
aF302.6
aF98.8
aF372.1
aa(lp1243
aF0.754
aa(lp1244
(lp1245
S'003882'
p1246
ag4
ag5
aF19.3
aF79.9
aF348.8
aF283.2
aa(lp1247
(lp1248
F54.0
aF83.0
aF151.0
aF155.0
aa(lp1249
F129.0
aF102.0
aF206.0
aF166.0
aa(lp1250
F181.0
aF93.0
aF267.0
aF172.0
aa(lp1251
F237.0
aF117.0
aF326.0
aF187.0
aa(lp1252
F302.0
aF119.0
aF400.0
aF200.0
aa(lp1253
F375.0
aF140.0
aF491.0
aF293.0
aa(lp1254
F12.0
aF142.0
aF89.0
aF243.0
aa(lp1255
F58.0
aF143.0
aF143.0
aF255.0
aa(lp1256
F112.0
aF156.0
aF202.0
aF275.0
aa(lp1257
F159.0
aF157.0
aF258.0
aF298.0
aa(lp1258
F227.0
aF171.0
aF337.0
aF321.0
aa(lp1259
F302.0
aF177.0
aF426.0
aF333.0
aaaF0.753
aa(lp1260
(lp1261
S'008754'
p1262
ag4
ag5
aF250.9
aF1.0
aF474.0
aF349.1
aa(lp1263
(lp1264
F327.0
aF153.0
aF355.0
aF301.0
aa(lp1265
F291.0
aF162.0
aF337.0
aF323.0
aa(lp1266
F229.0
aF165.0
aF269.0
aF318.0
aa(lp1267
F101.0
aF167.0
aF135.0
aF205.0
aaaF0.752
aa(lp1268
(lp1269
S'000603'
p1270
ag4
ag5
aF136.4
aF291.8
aF248.8
aF357.3
aa(lp1271
aF0.752
aa(lp1272
(lp1273
S'008893'
p1274
ag4
ag5
aF4.7
aF94.9
aF31.8
aF174.0
aa(lp1275
aF0.751
aa(lp1276
(lp1277
S'005673'
p1278
ag4
ag5
aF235.6
aF93.2
aF348.9
aF289.4
aa(lp1279
(lp1280
F22.0
aF94.0
aF125.0
aF188.0
aa(lp1281
F24.0
aF200.0
aF128.0
aF291.0
aa(lp1282
F132.0
aF103.0
aF229.0
aF195.0
aa(lp1283
F132.0
aF199.0
aF229.0
aF294.0
aa(lp1284
F246.0
aF101.0
aF341.0
aF195.0
aa(lp1285
F250.0
aF206.0
aF348.0
aF301.0
aa(lp1286
F364.0
aF107.0
aF453.0
aF198.0
aa(lp1287
F367.0
aF198.0
aF458.0
aF287.0
aa(lp1288
F458.0
aF117.0
aF500.0
aF198.0
aa(lp1289
F461.0
aF204.0
aF500.0
aF278.0
aaaF0.749
aa(lp1290
(lp1291
S'001712'
p1292
ag4
ag5
aF336.3
aF48.1
aF459.2
aF332.1
aa(lp1293
(lp1294
F2.0
aF216.0
aF131.0
aF375.0
aaaF0.748
aa(lp1295
(lp1296
S'003544'
p1297
ag4
ag5
aF308.5
aF218.8
aF337.2
aF291.3
aa(lp1298
aF0.748
aa(lp1299
(lp1300
S'006843'
p1301
ag4
ag5
aF131.3
aF134.1
aF166.1
aF185.6
aa(lp1302
(lp1303
F274.0
aF188.0
aF315.0
aF240.0
aa(lp1304
F193.0
aF184.0
aF238.0
aF238.0
aaaF0.746
aa(lp1305
(lp1306
S'002743'
p1307
ag4
ag5
aF98.3
aF57.0
aF334.8
aF218.9
aa(lp1308
(lp1309
F358.0
aF114.0
aF409.0
aF223.0
aa(lp1310
F160.0
aF8.0
aF444.0
aF229.0
aa(lp1311
F122.0
aF94.0
aF261.0
aF223.0
aa(lp1312
F26.0
aF93.0
aF189.0
aF229.0
aaaF0.743
aa(lp1313
(lp1314
S'009741'
p1315
ag4
ag5
aF30.9
aF207.2
aF64.0
aF283.8
aa(lp1316
(lp1317
F103.0
aF217.0
aF134.0
aF273.0
aaaF0.743
aa(lp1318
(lp1319
S'000650'
p1320
ag4
ag5
aF57.8
aF124.1
aF134.3
aF256.8
aa(lp1321
(lp1322
F103.0
aF2.0
aF416.0
aF375.0
aa(lp1323
F40.0
aF32.0
aF139.0
aF254.0
aaaF0.743
aa(lp1324
(lp1325
S'003520'
p1326
ag4
ag5
aF270.3
aF27.4
aF335.0
aF106.6
aa(lp1327
aF0.74
aa(lp1328
(lp1329
S'002412'
p1330
ag4
ag5
aF94.3
aF1.0
aF480.2
aF375.0
aa(lp1331
aF0.735
aa(lp1332
(lp1333
S'002777'
p1334
ag4
ag5
aF324.0
aF99.4
aF459.2
aF315.2
aa(lp1335
(lp1336
F324.0
aF116.0
aF468.0
aF217.0
aaaF0.73
aa(lp1337
(lp1338
S'008259'
p1339
ag4
ag5
aF166.9
aF194.5
aF213.8
aF260.4
aa(lp1340
aF0.727
aa(lp1341
(lp1342
S'008916'
p1343
ag4
ag5
aF166.9
aF216.9
aF275.3
aF305.0
aa(lp1344
aF0.726
aa(lp1345
(lp1346
S'002656'
p1347
ag4
ag5
aF18.1
aF215.3
aF57.8
aF278.9
aa(lp1348
aF0.724
aa(lp1349
(lp1350
S'003741'
p1351
ag4
ag5
aF110.0
aF16.2
aF321.9
aF236.9
aa(lp1352
aF0.722
aa(lp1353
(lp1354
S'005092'
p1355
ag4
ag5
aF124.8
aF46.9
aF350.1
aF306.9
aa(lp1356
(lp1357
F101.0
aF2.0
aF313.0
aF154.0
aa(lp1358
F285.0
aF2.0
aF392.0
aF175.0
aa(lp1359
F374.0
aF58.0
aF480.0
aF159.0
aa(lp1360
F443.0
aF2.0
aF500.0
aF127.0
aa(lp1361
F367.0
aF2.0
aF445.0
aF69.0
aaaF0.722
aa(lp1362
(lp1363
S'002527'
p1364
ag4
ag5
aF231.7
aF215.7
aF370.9
aF491.7
aa(lp1365
(lp1366
F1.0
aF40.0
aF373.0
aF500.0
aaaF0.722
aa(lp1367
(lp1368
S'002557'
p1369
ag4
ag5
aF114.4
aF1.7
aF167.1
aF71.3
aa(lp1370
(lp1371
F421.0
aF76.0
aF466.0
aF172.0
aa(lp1372
F281.0
aF65.0
aF342.0
aF112.0
aa(lp1373
F330.0
aF46.0
aF410.0
aF113.0
aa(lp1374
F196.0
aF2.0
aF261.0
aF108.0
aa(lp1375
F118.0
aF3.0
aF212.0
aF114.0
aa(lp1376
F100.0
aF87.0
aF146.0
aF123.0
aa(lp1377
F63.0
aF89.0
aF103.0
aF128.0
aa(lp1378
F38.0
aF1.0
aF105.0
aF70.0
aa(lp1379
F25.0
aF143.0
aF94.0
aF245.0
aa(lp1380
F169.0
aF177.0
aF224.0
aF230.0
aa(lp1381
F133.0
aF173.0
aF182.0
aF215.0
aa(lp1382
F86.0
aF184.0
aF143.0
aF234.0
aa(lp1383
F228.0
aF188.0
aF291.0
aF238.0
aa(lp1384
F277.0
aF151.0
aF345.0
aF222.0
aa(lp1385
F340.0
aF179.0
aF405.0
aF267.0
aaaF0.72
aa(lp1386
(lp1387
S'007051'
p1388
ag4
ag5
aF8.8
aF1.0
aF184.4
aF318.5
aa(lp1389
aF0.72
aa(lp1390
(lp1391
S'008198'
p1392
ag4
ag5
aF167.5
aF120.6
aF198.4
aF173.2
aa(lp1393
aF0.719
aa(lp1394
(lp1395
S'002557'
p1396
ag4
ag5
aF27.6
aF23.3
aF155.4
aF271.0
aa(lp1397
(lp1398
F421.0
aF76.0
aF466.0
aF172.0
aa(lp1399
F281.0
aF65.0
aF342.0
aF112.0
aa(lp1400
F330.0
aF46.0
aF410.0
aF113.0
aa(lp1401
F196.0
aF2.0
aF261.0
aF108.0
aa(lp1402
F118.0
aF3.0
aF212.0
aF114.0
aa(lp1403
F100.0
aF87.0
aF146.0
aF123.0
aa(lp1404
F63.0
aF89.0
aF103.0
aF128.0
aa(lp1405
F38.0
aF1.0
aF105.0
aF70.0
aa(lp1406
F25.0
aF143.0
aF94.0
aF245.0
aa(lp1407
F169.0
aF177.0
aF224.0
aF230.0
aa(lp1408
F133.0
aF173.0
aF182.0
aF215.0
aa(lp1409
F86.0
aF184.0
aF143.0
aF234.0
aa(lp1410
F228.0
aF188.0
aF291.0
aF238.0
aa(lp1411
F277.0
aF151.0
aF345.0
aF222.0
aa(lp1412
F340.0
aF179.0
aF405.0
aF267.0
aaaF0.718
aa(lp1413
(lp1414
S'005922'
p1415
ag4
ag5
aF122.1
aF35.5
aF423.9
aF339.5
aa(lp1416
(lp1417
F71.0
aF245.0
aF194.0
aF367.0
aa(lp1418
F226.0
aF252.0
aF344.0
aF352.0
aa(lp1419
F2.0
aF250.0
aF73.0
aF349.0
aaaF0.712
aa(lp1420
(lp1421
S'005525'
p1422
ag4
ag5
aF266.1
aF68.6
aF424.7
aF211.6
aa(lp1423
(lp1424
F169.0
aF6.0
aF500.0
aF344.0
aaaF0.711
aa(lp1425
(lp1426
S'003643'
p1427
ag4
ag5
aF316.5
aF201.0
aF341.5
aF285.9
aa(lp1428
aF0.71
aa(lp1429
(lp1430
S'007648'
p1431
ag4
ag5
aF16.3
aF105.9
aF121.2
aF213.1
aa(lp1432
aF0.71
aa(lp1433
(lp1434
S'002656'
p1435
ag4
ag5
aF221.6
aF68.9
aF291.4
aF159.8
aa(lp1436
aF0.706
aa(lp1437
(lp1438
S'008963'
p1439
ag4
ag5
aF3.4
aF24.8
aF42.9
aF187.0
aa(lp1440
aF0.704
aa(lp1441
(lp1442
S'001869'
p1443
ag4
ag5
aF279.9
aF39.8
aF487.6
aF347.3
aa(lp1444
(lp1445
F132.0
aF3.0
aF440.0
aF338.0
aaaF0.703
aa(lp1446
(lp1447
S'001462'
p1448
ag4
ag5
aF39.4
aF1.0
aF484.1
aF323.7
aa(lp1449
aF0.702
aa(lp1450
(lp1451
S'006092'
p1452
ag4
ag5
aF149.5
aF135.6
aF321.2
aF468.3
aa(lp1453
aF0.702
aa(lp1454
(lp1455
S'005437'
p1456
ag4
ag5
aF5.5
aF63.7
aF67.6
aF130.1
aa(lp1457
aF0.699
aa(lp1458
(lp1459
S'007382'
p1460
ag4
ag5
aF3.0
aF13.0
aF55.0
aF72.3
aa(lp1461
aF0.699
aa(lp1462
(lp1463
S'005459'
p1464
ag4
ag5
aF198.5
aF1.0
aF331.4
aF265.6
aa(lp1465
aF0.699
aa(lp1466
(lp1467
S'000058'
p1468
ag4
ag5
aF448.2
aF6.9
aF493.5
aF77.2
aa(lp1469
aF0.693
aa(lp1470
(lp1471
S'003020'
p1472
ag4
ag5
aF451.8
aF263.0
aF490.6
aF327.7
aa(lp1473
(lp1474
F405.0
aF205.0
aF444.0
aF245.0
aa(lp1475
F415.0
aF270.0
aF450.0
aF325.0
aaaF0.692
aa(lp1476
(lp1477
S'004635'
p1478
ag4
ag5
aF329.9
aF5.1
aF389.2
aF126.9
aa(lp1479
aF0.691
aa(lp1480
(lp1481
S'004027'
p1482
ag4
ag5
aF71.0
aF36.7
aF159.3
aF184.8
aa(lp1483
(lp1484
F223.0
aF260.0
aF280.0
aF320.0
aa(lp1485
F178.0
aF22.0
aF333.0
aF401.0
aa(lp1486
F66.0
aF38.0
aF239.0
aF415.0
aa(lp1487
F86.0
aF256.0
aF201.0
aF449.0
aa(lp1488
F1.0
aF214.0
aF124.0
aF417.0
aa(lp1489
F78.0
aF365.0
aF146.0
aF460.0
aa(lp1490
F54.0
aF361.0
aF103.0
aF440.0
aa(lp1491
F17.0
aF348.0
aF71.0
aF433.0
aaaF0.686
aa(lp1492
(lp1493
S'000414'
p1494
ag4
ag5
aF5.4
aF119.2
aF47.3
aF225.4
aa(lp1495
aF0.684
aa(lp1496
(lp1497
S'002510'
p1498
ag4
ag5
aF45.8
aF57.2
aF72.2
aF88.7
aa(lp1499
(lp1500
F143.0
aF4.0
aF174.0
aF103.0
aaaF0.678
aa(lp1501
(lp1502
S'001615'
p1503
ag4
ag5
aF158.8
aF11.7
aF411.6
aF304.5
aa(lp1504
aF0.676
aa(lp1505
(lp1506
S'007648'
p1507
ag4
ag5
aF148.0
aF112.5
aF234.1
aF270.7
aa(lp1508
aF0.676
aa(lp1509
a(lp1510
a(lp1511
a(lp1512
a(lp1513
a(lp1514
a(lp1515
a(lp1516
a(lp1517
a(lp1518
a(lp1519
a(lp1520
a(lp1521
a(lp1522
a(lp1523
a(lp1524
a(lp1525
a(lp1526
a(lp1527
a(lp1528
a(lp1529
a(lp1530
a(lp1531
a(lp1532
a(lp1533
a(lp1534
a(lp1535
a(lp1536
a(lp1537
a(lp1538
a(lp1539
a(lp1540
a(lp1541
a(lp1542
a(lp1543
a(lp1544
a(lp1545
a(lp1546
a(lp1547
a(lp1548
a(lp1549
a(lp1550
a(lp1551
a(lp1552
a(lp1553
a(lp1554
a(lp1555
a(lp1556
a(lp1557
a(lp1558
a(lp1559
a(lp1560
a(lp1561
a(lp1562
a(lp1563
a(lp1564
a(lp1565
a(lp1566
a(lp1567
a(lp1568
a(lp1569
a(lp1570
a(lp1571
a(lp1572
a(lp1573
a(lp1574
a(lp1575
a(lp1576
a(lp1577
a(lp1578
a(lp1579
a(lp1580
a(lp1581
a(lp1582
a(lp1583
a(lp1584
a(lp1585
a(lp1586
a(lp1587
a(lp1588
a(lp1589
a(lp1590
a(lp1591
a(lp1592
a(lp1593
a(lp1594
a(lp1595
a(lp1596
a(lp1597
a(lp1598
a(lp1599
a(lp1600
a(lp1601
a(lp1602
a(lp1603
a(lp1604
a(lp1605
a(lp1606
a(lp1607
a(lp1608
a(lp1609
a(lp1610
a(lp1611
a(lp1612
a(lp1613
a(lp1614
a(lp1615
a(lp1616
a(lp1617
a(lp1618
a(lp1619
a(lp1620
a(lp1621
a(lp1622
a(lp1623
a(lp1624
a(lp1625
a(lp1626
a(lp1627
a(lp1628
a(lp1629
a(lp1630
a(lp1631
a(lp1632
a(lp1633
a(lp1634
a(lp1635
a(lp1636
a(lp1637
a(lp1638
a(lp1639
a(lp1640
a(lp1641
a(lp1642
a(lp1643
a(lp1644
a(lp1645
a(lp1646
a(lp1647
a(lp1648
a(lp1649
a(lp1650
a(lp1651
a(lp1652
a(lp1653
a(lp1654
a(lp1655
a(lp1656
a(lp1657
a(lp1658
a(lp1659
a(lp1660
a(lp1661
a(lp1662
a(lp1663
a(lp1664
a(lp1665
a(lp1666
a(lp1667
a(lp1668
a(lp1669
a(lp1670
a(lp1671
a(lp1672
a(lp1673
a(lp1674
a(lp1675
a(lp1676
a(lp1677
a(lp1678
a(lp1679
a(lp1680
a(lp1681
a(lp1682
a(lp1683
a(lp1684
a(lp1685
a(lp1686
a(lp1687
a(lp1688
a(lp1689
a(lp1690
a(lp1691
a(lp1692
a(lp1693
a(lp1694
a(lp1695
a(lp1696
a(lp1697
a(lp1698
a(lp1699
a(lp1700
a(lp1701
a(lp1702
a(lp1703
a(lp1704
a(lp1705
a(lp1706
a(lp1707
a(lp1708
a(lp1709
a(lp1710
a(lp1711
a(lp1712
a(lp1713
a(lp1714
a(lp1715
a(lp1716
a(lp1717
a(lp1718
a(lp1719
a(lp1720
a(lp1721
a(lp1722
a(lp1723
a(lp1724
a(lp1725
a(lp1726
a(lp1727
a(lp1728
a(lp1729
a(lp1730
a(lp1731
a(lp1732
a(lp1733
a(lp1734
a(lp1735
a(lp1736
a(lp1737
a(lp1738
a(lp1739
a(lp1740
a(lp1741
a(lp1742
a(lp1743
a(lp1744
a(lp1745
a(lp1746
a(lp1747
a(lp1748
a(lp1749
a.