(lp0
(lp1
(lp2
S'001013'
p3
aS'sheep'
p4
aS'err_lowIoU'
p5
aF88.6
aF230.6
aF115.0
aF275.6
aa(lp6
aa(lp7
(lp8
S'007380'
p9
ag4
ag5
aF262.6
aF216.7
aF299.4
aF257.5
aa(lp10
aa(lp11
(lp12
S'007440'
p13
ag4
ag5
aF149.8
aF95.3
aF326.1
aF255.9
aa(lp14
(lp15
F1.0
aF92.0
aF324.0
aF266.0
aa(lp16
F345.0
aF107.0
aF500.0
aF230.0
aaaa(lp17
(lp18
S'003955'
p19
ag4
ag5
aF258.4
aF176.2
aF462.8
aF353.8
aa(lp20
aa(lp21
(lp22
S'006217'
p23
ag4
ag5
aF36.9
aF227.5
aF315.6
aF454.9
aa(lp24
(lp25
F231.0
aF201.0
aF333.0
aF318.0
aa(lp26
F37.0
aF199.0
aF213.0
aF259.0
aa(lp27
F167.0
aF304.0
aF270.0
aF456.0
aa(lp28
F82.0
aF260.0
aF181.0
aF449.0
aa(lp29
F37.0
aF242.0
aF242.0
aF326.0
aa(lp30
F231.0
aF260.0
aF300.0
aF377.0
aa(lp31
F8.0
aF244.0
aF79.0
aF358.0
aa(lp32
F1.0
aF327.0
aF94.0
aF479.0
aaaa(lp33
(lp34
S'007462'
p35
ag4
ag5
aF1.0
aF2.5
aF19.1
aF30.8
aa(lp36
(lp37
F167.0
aF107.0
aF284.0
aF321.0
aa(lp38
F162.0
aF32.0
aF213.0
aF130.0
aaaa(lp39
(lp40
S'009169'
p41
ag4
ag5
aF343.5
aF135.4
aF432.6
aF189.7
aa(lp42
(lp43
F144.0
aF142.0
aF209.0
aF194.0
aa(lp44
F104.0
aF140.0
aF154.0
aF186.0
aa(lp45
F131.0
aF133.0
aF184.0
aF153.0
aa(lp46
F217.0
aF110.0
aF235.0
aF133.0
aa(lp47
F83.0
aF165.0
aF118.0
aF198.0
aa(lp48
F236.0
aF111.0
aF252.0
aF132.0
aa(lp49
F250.0
aF111.0
aF264.0
aF136.0
aa(lp50
F245.0
aF78.0
aF256.0
aF92.0
aa(lp51
F267.0
aF74.0
aF276.0
aF85.0
aa(lp52
F295.0
aF136.0
aF332.0
aF187.0
aa(lp53
F341.0
aF135.0
aF366.0
aF180.0
aa(lp54
F363.0
aF141.0
aF394.0
aF193.0
aa(lp55
F386.0
aF131.0
aF399.0
aF167.0
aa(lp56
F399.0
aF138.0
aF434.0
aF191.0
aa(lp57
F397.0
aF134.0
aF420.0
aF159.0
aaaa(lp58
(lp59
S'009169'
p60
ag4
ag5
aF215.3
aF107.9
aF264.3
aF135.6
aa(lp61
(lp62
F144.0
aF142.0
aF209.0
aF194.0
aa(lp63
F104.0
aF140.0
aF154.0
aF186.0
aa(lp64
F131.0
aF133.0
aF184.0
aF153.0
aa(lp65
F217.0
aF110.0
aF235.0
aF133.0
aa(lp66
F83.0
aF165.0
aF118.0
aF198.0
aa(lp67
F236.0
aF111.0
aF252.0
aF132.0
aa(lp68
F250.0
aF111.0
aF264.0
aF136.0
aa(lp69
F245.0
aF78.0
aF256.0
aF92.0
aa(lp70
F267.0
aF74.0
aF276.0
aF85.0
aa(lp71
F295.0
aF136.0
aF332.0
aF187.0
aa(lp72
F341.0
aF135.0
aF366.0
aF180.0
aa(lp73
F363.0
aF141.0
aF394.0
aF193.0
aa(lp74
F386.0
aF131.0
aF399.0
aF167.0
aa(lp75
F399.0
aF138.0
aF434.0
aF191.0
aa(lp76
F397.0
aF134.0
aF420.0
aF159.0
aaaa(lp77
(lp78
S'001764'
p79
ag4
ag5
aF222.3
aF106.5
aF281.6
aF150.6
aa(lp80
aa(lp81
(lp82
S'001716'
p83
ag4
ag5
aF383.2
aF163.0
aF409.9
aF191.8
aa(lp84
aa(lp85
(lp86
S'001839'
p87
ag4
ag5
aF240.8
aF150.2
aF383.8
aF268.0
aa(lp88
aa(lp89
(lp90
S'002115'
p91
ag4
ag5
aF344.9
aF81.7
aF372.9
aF114.3
aa(lp92
aa(lp93
(lp94
S'001852'
p95
ag4
ag5
aF16.1
aF248.5
aF166.0
aF375.0
aa(lp96
(lp97
F72.0
aF105.0
aF232.0
aF305.0
aa(lp98
F184.0
aF58.0
aF500.0
aF352.0
aaaa(lp99
(lp100
S'002326'
p101
ag4
ag5
aF183.1
aF136.9
aF223.4
aF183.1
aa(lp102
aa(lp103
(lp104
S'007198'
p105
ag4
ag5
aF249.3
aF119.1
aF385.6
aF295.4
aa(lp106
aa(lp107
(lp108
S'005886'
p109
ag4
ag5
aF90.3
aF254.2
aF132.8
aF340.9
aa(lp110
(lp111
F84.0
aF255.0
aF202.0
aF367.0
aaaa(lp112
(lp113
S'004979'
p114
ag4
ag5
aF19.4
aF73.9
aF315.1
aF364.8
aa(lp115
aa(lp116
(lp117
S'004582'
p118
ag4
ag5
aF19.3
aF79.5
aF163.4
aF350.4
aa(lp119
(lp120
F75.0
aF2.0
aF480.0
aF360.0
aa(lp121
F1.0
aF2.0
aF293.0
aF343.0
aaaa(lp122
(lp123
S'008090'
p124
ag4
ag5
aF358.2
aF128.2
aF388.4
aF155.6
aa(lp125
aa(lp126
(lp127
S'003479'
p128
ag4
ag5
aF75.3
aF71.8
aF342.5
aF333.0
aa(lp129
aa(lp130
(lp131
S'009320'
p132
ag4
ag5
aF285.9
aF215.8
aF446.1
aF294.6
aa(lp133
(lp134
F288.0
aF215.0
aF451.0
aF375.0
aa(lp135
F430.0
aF329.0
aF500.0
aF375.0
aa(lp136
F440.0
aF254.0
aF480.0
aF286.0
aa(lp137
F192.0
aF284.0
aF276.0
aF361.0
aa(lp138
F249.0
aF211.0
aF300.0
aF251.0
aaaa(lp139
(lp140
S'004945'
p141
ag4
ag5
aF12.5
aF113.7
aF473.9
aF357.0
aa(lp142
aa(lp143
(lp144
S'000546'
p145
ag4
ag5
aF1.6
aF160.3
aF314.0
aF346.2
aa(lp146
aa(lp147
(lp148
S'002326'
p149
ag4
ag5
aF301.1
aF132.0
aF346.1
aF178.4
aa(lp150
aa(lp151
(lp152
S'001573'
p153
ag4
ag5
aF172.6
aF99.7
aF323.3
aF275.0
aa(lp154
aa(lp155
(lp156
S'008912'
p157
ag4
ag5
aF253.0
aF171.8
aF291.6
aF193.6
aa(lp158
(lp159
F29.0
aF163.0
aF269.0
aF339.0
aa(lp160
F343.0
aF184.0
aF409.0
aF239.0
aa(lp161
F252.0
aF169.0
aF291.0
aF237.0
aa(lp162
F282.0
aF179.0
aF322.0
aF240.0
aaaa(lp163
(lp164
S'002802'
p165
ag4
ag5
aF151.2
aF80.9
aF372.2
aF500.0
aa(lp166
(lp167
F102.0
aF266.0
aF375.0
aF500.0
aa(lp168
F38.0
aF79.0
aF375.0
aF225.0
aa(lp169
F57.0
aF131.0
aF374.0
aF337.0
aaaa(lp170
(lp171
S'000013'
p172
ag4
ag5
aF297.3
aF155.5
aF408.4
aF251.6
aa(lp173
aa(lp174
(lp175
S'006217'
p176
ag4
ag5
aF33.0
aF197.8
aF107.7
aF245.1
aa(lp177
(lp178
F231.0
aF201.0
aF333.0
aF318.0
aa(lp179
F37.0
aF199.0
aF213.0
aF259.0
aa(lp180
F167.0
aF304.0
aF270.0
aF456.0
aa(lp181
F82.0
aF260.0
aF181.0
aF449.0
aa(lp182
F37.0
aF242.0
aF242.0
aF326.0
aa(lp183
F231.0
aF260.0
aF300.0
aF377.0
aa(lp184
F8.0
aF244.0
aF79.0
aF358.0
aa(lp185
F1.0
aF327.0
aF94.0
aF479.0
aaaa(lp186
(lp187
S'002818'
p188
ag4
ag5
aF76.3
aF219.6
aF121.2
aF273.1
aa(lp189
aa(lp190
(lp191
S'005578'
p192
ag4
ag5
aF189.4
aF128.0
aF236.2
aF240.3
aa(lp193
(lp194
F195.0
aF182.0
aF231.0
aF248.0
aa(lp195
F116.0
aF125.0
aF227.0
aF266.0
aaaa(lp196
(lp197
S'007716'
p198
ag4
ag5
aF23.9
aF161.5
aF234.5
aF368.1
aa(lp199
aa(lp200
(lp201
S'001037'
p202
ag4
ag5
aF330.7
aF102.4
aF438.1
aF213.4
aa(lp203
aa(lp204
(lp205
S'000789'
p206
ag4
ag5
aF61.0
aF135.5
aF151.9
aF256.8
aa(lp207
(lp208
F158.0
aF163.0
aF232.0
aF231.0
aa(lp209
F230.0
aF176.0
aF328.0
aF250.0
aa(lp210
F260.0
aF158.0
aF360.0
aF233.0
aa(lp211
F344.0
aF117.0
aF382.0
aF148.0
aa(lp212
F271.0
aF113.0
aF310.0
aF141.0
aaaa(lp213
(lp214
S'005335'
p215
ag4
ag5
aF207.3
aF205.4
aF276.0
aF280.2
aa(lp216
aa(lp217
(lp218
S'002017'
p219
ag4
ag5
aF123.0
aF122.9
aF417.6
aF279.5
aa(lp220
aa(lp221
(lp222
S'000432'
p223
ag4
ag5
aF220.5
aF203.2
aF276.2
aF234.9
aa(lp224
aa(lp225
(lp226
S'004218'
p227
ag4
ag5
aF319.1
aF226.8
aF429.7
aF326.8
aa(lp228
aa(lp229
(lp230
S'001416'
p231
ag4
ag5
aF247.6
aF68.2
aF500.0
aF323.0
aa(lp232
(lp233
F208.0
aF78.0
aF401.0
aF192.0
aa(lp234
F19.0
aF71.0
aF183.0
aF195.0
aa(lp235
F1.0
aF106.0
aF121.0
aF249.0
aa(lp236
F1.0
aF185.0
aF324.0
aF328.0
aa(lp237
F330.0
aF26.0
aF472.0
aF106.0
aa(lp238
F27.0
aF13.0
aF252.0
aF134.0
aaaa(lp239
(lp240
S'004399'
p241
ag4
ag5
aF163.1
aF121.4
aF225.2
aF237.3
aa(lp242
aa(lp243
(lp244
S'005241'
p245
ag4
ag5
aF100.4
aF18.3
aF440.6
aF327.6
aa(lp246
aa(lp247
(lp248
S'001416'
p249
ag4
ag5
aF1.0
aF71.2
aF400.4
aF311.3
aa(lp250
(lp251
F208.0
aF78.0
aF401.0
aF192.0
aa(lp252
F19.0
aF71.0
aF183.0
aF195.0
aa(lp253
F1.0
aF106.0
aF121.0
aF249.0
aa(lp254
F1.0
aF185.0
aF324.0
aF328.0
aa(lp255
F330.0
aF26.0
aF472.0
aF106.0
aa(lp256
F27.0
aF13.0
aF252.0
aF134.0
aaaa(lp257
(lp258
S'008656'
p259
ag4
ag5
aF1.0
aF89.6
aF325.3
aF333.0
aa(lp260
aa(lp261
(lp262
S'001852'
p263
ag4
ag5
aF368.4
aF145.5
aF500.0
aF363.1
aa(lp264
(lp265
F72.0
aF105.0
aF232.0
aF305.0
aa(lp266
F184.0
aF58.0
aF500.0
aF352.0
aaaa(lp267
(lp268
S'000789'
p269
ag4
ag5
aF307.9
aF154.2
aF362.2
aF237.9
aa(lp270
(lp271
F158.0
aF163.0
aF232.0
aF231.0
aa(lp272
F230.0
aF176.0
aF328.0
aF250.0
aa(lp273
F260.0
aF158.0
aF360.0
aF233.0
aa(lp274
F344.0
aF117.0
aF382.0
aF148.0
aa(lp275
F271.0
aF113.0
aF310.0
aF141.0
aaaa(lp276
(lp277
S'007198'
p278
ag4
ag5
aF2.3
aF41.8
aF122.1
aF273.7
aa(lp279
aa(lp280
(lp281
S'004659'
p282
ag4
ag5
aF1.0
aF324.2
aF51.8
aF371.6
aa(lp283
aa(lp284
(lp285
S'000725'
p286
ag4
ag5
aF365.2
aF215.5
aF393.8
aF235.1
aa(lp287
aa(lp288
(lp289
S'009170'
p290
ag4
ag5
aF251.7
aF155.7
aF331.3
aF271.6
aa(lp291
aa(lp292
(lp293
S'000115'
p294
ag4
ag5
aF5.0
aF365.3
aF354.6
aF497.3
aa(lp295
aa(lp296
(lp297
S'005883'
p298
ag4
ag5
aF139.9
aF123.8
aF357.5
aF344.0
aa(lp299
aa(lp300
(lp301
S'008786'
p302
ag4
ag5
aF86.6
aF160.1
aF113.1
aF195.8
aa(lp303
aa(lp304
(lp305
S'001006'
p306
ag4
ag5
aF295.0
aF294.2
aF370.7
aF328.7
aa(lp307
aa(lp308
(lp309
S'006580'
p310
ag4
ag5
aF378.6
aF234.8
aF418.0
aF275.9
aa(lp311
aa(lp312
(lp313
S'006557'
p314
ag4
ag5
aF173.9
aF156.1
aF225.9
aF229.5
aa(lp315
(lp316
F175.0
aF158.0
aF260.0
aF321.0
aa(lp317
F250.0
aF152.0
aF373.0
aF325.0
aaaa(lp318
(lp319
S'001006'
p320
ag4
ag5
aF196.0
aF132.2
aF305.8
aF257.5
aa(lp321
aa(lp322
(lp323
S'000561'
p324
ag4
ag5
aF1.0
aF119.8
aF19.8
aF182.7
aa(lp325
aa(lp326
(lp327
S'002005'
p328
ag4
ag5
aF255.3
aF152.0
aF289.2
aF177.3
aa(lp329
aa(lp330
(lp331
S'003533'
p332
ag4
ag5
aF325.2
aF82.6
aF346.1
aF99.7
aa(lp333
aa(lp334
(lp335
S'007028'
p336
ag4
ag5
aF149.8
aF174.3
aF395.1
aF371.9
aa(lp337
(lp338
F73.0
aF174.0
aF337.0
aF306.0
aa(lp339
F237.0
aF88.0
aF323.0
aF145.0
aaaa(lp340
(lp341
S'004980'
p342
ag4
ag5
aF309.6
aF190.6
aF336.7
aF216.2
aa(lp343
aa(lp344
(lp345
S'000175'
p346
ag4
ag5
aF1.0
aF51.0
aF65.8
aF227.8
aa(lp347
(lp348
F25.0
aF34.0
aF419.0
aF271.0
aaaa(lp349
(lp350
S'004775'
p351
ag4
ag5
aF122.1
aF19.1
aF446.4
aF333.0
aa(lp352
aa(lp353
(lp354
S'003562'
p355
ag4
ag5
aF289.8
aF167.0
aF393.5
aF256.8
aa(lp356
aa(lp357
a(lp358
a(lp359
a(lp360
a(lp361
a(lp362
a(lp363
a(lp364
a(lp365
a(lp366
a(lp367
a(lp368
a(lp369
a(lp370
a(lp371
a(lp372
a(lp373
a(lp374
a(lp375
a(lp376
a(lp377
a(lp378
a(lp379
a(lp380
a(lp381
a(lp382
a(lp383
a(lp384
a(lp385
a(lp386
a(lp387
a(lp388
a(lp389
a(lp390
a(lp391
a(lp392
a(lp393
a(lp394
a(lp395
a(lp396
a(lp397
a(lp398
a(lp399
a(lp400
a(lp401
a(lp402
a(lp403
a(lp404
a(lp405
a(lp406
a(lp407
a(lp408
a(lp409
a(lp410
a(lp411
a(lp412
a(lp413
a(lp414
a(lp415
a(lp416
a(lp417
a(lp418
a(lp419
a(lp420
a(lp421
a(lp422
a(lp423
a(lp424
a(lp425
a(lp426
a(lp427
a(lp428
a(lp429
a(lp430
a(lp431
a(lp432
a(lp433
a(lp434
a(lp435
a(lp436
a(lp437
a(lp438
a(lp439
a(lp440
a(lp441
a(lp442
a(lp443
a(lp444
a(lp445
a(lp446
a(lp447
a(lp448
a(lp449
a(lp450
a(lp451
a(lp452
a(lp453
a(lp454
a(lp455
a(lp456
a(lp457
a(lp458
a(lp459
a(lp460
a(lp461
a(lp462
a(lp463
a(lp464
a(lp465
a(lp466
a(lp467
a(lp468
a(lp469
a(lp470
a(lp471
a(lp472
a(lp473
a(lp474
a(lp475
a(lp476
a(lp477
a(lp478
a(lp479
a(lp480
a(lp481
a(lp482
a(lp483
a(lp484
a(lp485
a(lp486
a(lp487
a(lp488
a(lp489
a(lp490
a(lp491
a(lp492
a(lp493
a(lp494
a(lp495
a(lp496
a(lp497
a(lp498
a(lp499
a(lp500
a(lp501
a(lp502
a(lp503
a(lp504
a(lp505
a(lp506
a(lp507
a(lp508
a(lp509
a(lp510
a(lp511
a(lp512
a(lp513
a(lp514
a(lp515
a(lp516
a(lp517
a(lp518
a(lp519
a(lp520
a(lp521
a(lp522
a(lp523
a(lp524
a(lp525
a(lp526
a(lp527
a(lp528
a(lp529
a(lp530
a(lp531
a(lp532
a(lp533
a(lp534
a.