(lp0
(lp1
(lp2
S'003702'
p3
aS'sofa'
p4
aS'err_lowIoU'
p5
aF260.0
aF86.6
aF487.3
aF288.5
aa(lp6
(lp7
F3.0
aF103.0
aF500.0
aF275.0
aaaa(lp8
(lp9
S'001025'
p10
ag4
ag5
aF11.7
aF111.6
aF375.0
aF500.0
aa(lp11
aa(lp12
(lp13
S'005353'
p14
ag4
aS'err_repeat'
p15
aF1.6
aF107.9
aF302.3
aF315.6
aa(lp16
(lp17
F1.0
aF98.0
aF500.0
aF300.0
aaaa(lp18
(lp19
S'002426'
p20
ag4
ag5
aF11.2
aF37.2
aF458.3
aF368.0
aa(lp21
(lp22
F38.0
aF2.0
aF248.0
aF116.0
aaaa(lp23
(lp24
S'003472'
p25
ag4
ag5
aF255.1
aF247.7
aF489.8
aF367.3
aa(lp26
aa(lp27
(lp28
S'002809'
p29
ag4
ag5
aF2.1
aF258.7
aF204.7
aF361.3
aa(lp30
(lp31
F1.0
aF248.0
aF106.0
aF376.0
aaaa(lp32
(lp33
S'001458'
p34
ag4
ag5
aF216.7
aF124.1
aF387.0
aF221.3
aa(lp35
(lp36
F106.0
aF121.0
aF392.0
aF299.0
aaaa(lp37
(lp38
S'004695'
p39
ag4
ag5
aF321.8
aF204.0
aF485.3
aF360.7
aa(lp40
(lp41
F1.0
aF311.0
aF500.0
aF375.0
aaaa(lp42
(lp43
S'003221'
p44
ag4
ag5
aF145.3
aF252.9
aF327.6
aF318.1
aa(lp45
(lp46
F143.0
aF241.0
aF385.0
aF340.0
aaaa(lp47
(lp48
S'003526'
p49
ag4
ag5
aF1.0
aF186.1
aF294.5
aF375.0
aa(lp50
aa(lp51
(lp52
S'008396'
p53
ag4
ag5
aF1.0
aF29.4
aF500.0
aF347.6
aa(lp54
aa(lp55
(lp56
S'003447'
p57
ag4
ag5
aF1.0
aF26.7
aF500.0
aF363.1
aa(lp58
aa(lp59
(lp60
S'008178'
p61
ag4
ag5
aF53.4
aF31.2
aF464.2
aF352.4
aa(lp62
aa(lp63
(lp64
S'000429'
p65
ag4
ag5
aF17.5
aF195.7
aF346.0
aF335.4
aa(lp66
aa(lp67
(lp68
S'004029'
p69
ag4
ag15
aF29.6
aF55.5
aF300.4
aF186.6
aa(lp70
(lp71
F10.0
aF68.0
aF489.0
aF195.0
aaaa(lp72
(lp73
S'005646'
p74
ag4
ag5
aF11.7
aF155.9
aF500.0
aF371.8
aa(lp75
aa(lp76
(lp77
S'003702'
p78
ag4
ag5
aF26.4
aF133.3
aF300.7
aF277.7
aa(lp79
(lp80
F3.0
aF103.0
aF500.0
aF275.0
aaaa(lp81
(lp82
S'002264'
p83
ag4
ag5
aF9.0
aF267.7
aF248.2
aF482.1
aa(lp84
aa(lp85
(lp86
S'008922'
p87
ag4
ag5
aF249.2
aF162.9
aF485.7
aF344.3
aa(lp88
(lp89
F360.0
aF167.0
aF500.0
aF308.0
aaaa(lp90
(lp91
S'008611'
p92
ag4
ag5
aF1.0
aF120.3
aF217.6
aF225.4
aa(lp93
aa(lp94
(lp95
S'002297'
p96
ag4
ag5
aF337.1
aF123.0
aF500.0
aF375.0
aa(lp97
(lp98
F292.0
aF85.0
aF500.0
aF213.0
aaaa(lp99
(lp100
S'005934'
p101
ag4
ag5
aF59.8
aF19.2
aF487.7
aF320.0
aa(lp102
aa(lp103
(lp104
S'006257'
p105
ag4
ag5
aF282.2
aF161.6
aF468.6
aF339.4
aa(lp106
(lp107
F23.0
aF138.0
aF480.0
aF328.0
aaaa(lp108
(lp109
S'004820'
p110
ag4
ag5
aF93.6
aF277.3
aF300.4
aF474.0
aa(lp111
aa(lp112
(lp113
S'000157'
p114
ag4
ag5
aF27.7
aF96.4
aF400.0
aF250.3
aa(lp115
aa(lp116
(lp117
S'008196'
p118
ag4
ag5
aF96.9
aF109.5
aF470.8
aF338.5
aa(lp119
aa(lp120
(lp121
S'004567'
p122
ag4
ag5
aF85.8
aF176.8
aF212.5
aF356.2
aa(lp123
(lp124
F93.0
aF197.0
aF393.0
aF375.0
aaaa(lp125
(lp126
S'002449'
p127
ag4
ag5
aF279.8
aF246.4
aF486.9
aF373.0
aa(lp128
aa(lp129
(lp130
S'002510'
p131
ag4
ag5
aF11.7
aF108.2
aF190.9
aF277.5
aa(lp132
(lp133
F174.0
aF121.0
aF488.0
aF329.0
aaaa(lp134
(lp135
S'001813'
p136
ag4
ag5
aF115.3
aF133.7
aF470.6
aF356.1
aa(lp137
aa(lp138
(lp139
S'006676'
p140
ag4
ag5
aF88.6
aF166.7
aF485.0
aF352.8
aa(lp141
(lp142
F326.0
aF163.0
aF500.0
aF344.0
aaaa(lp143
(lp144
S'009663'
p145
ag4
ag5
aF205.7
aF168.5
aF500.0
aF345.4
aa(lp146
(lp147
F238.0
aF142.0
aF473.0
aF266.0
aaaa(lp148
(lp149
S'006826'
p150
ag4
ag5
aF285.4
aF161.7
aF500.0
aF361.9
aa(lp151
(lp152
F281.0
aF146.0
aF500.0
aF262.0
aaaa(lp153
(lp154
S'009222'
p155
ag4
ag5
aF6.3
aF100.1
aF446.3
aF356.4
aa(lp156
(lp157
F65.0
aF109.0
aF351.0
aF251.0
aaaa(lp158
(lp159
S'006705'
p160
ag4
ag5
aF45.1
aF161.8
aF430.9
aF357.4
aa(lp161
(lp162
F89.0
aF170.0
aF270.0
aF361.0
aaaa(lp163
(lp164
S'008405'
p165
ag4
ag5
aF1.0
aF199.4
aF278.4
aF375.0
aa(lp166
aa(lp167
(lp168
S'007747'
p169
ag4
ag5
aF299.9
aF215.2
aF493.6
aF362.2
aa(lp170
(lp171
F15.0
aF190.0
aF200.0
aF330.0
aaaa(lp172
(lp173
S'006359'
p174
ag4
ag5
aF184.7
aF43.5
aF500.0
aF253.6
aa(lp175
aa(lp176
(lp177
S'009043'
p178
ag4
ag5
aF1.0
aF166.5
aF381.7
aF330.0
aa(lp179
aa(lp180
(lp181
S'009310'
p182
ag4
ag5
aF195.6
aF94.5
aF499.6
aF353.0
aa(lp183
aa(lp184
(lp185
S'004139'
p186
ag4
ag5
aF60.9
aF64.8
aF490.0
aF375.0
aa(lp187
aa(lp188
(lp189
S'001117'
p190
ag4
ag5
aF43.1
aF252.9
aF213.5
aF375.0
aa(lp191
(lp192
F6.0
aF206.0
aF474.0
aF375.0
aaaa(lp193
(lp194
S'003442'
p195
ag4
ag5
aF80.8
aF101.9
aF237.0
aF260.1
aa(lp196
(lp197
F7.0
aF87.0
aF500.0
aF332.0
aaaa(lp198
(lp199
S'008428'
p200
ag4
ag5
aF273.9
aF190.6
aF482.6
aF340.5
aa(lp201
aa(lp202
(lp203
S'008646'
p204
ag4
ag5
aF4.2
aF100.2
aF236.5
aF375.0
aa(lp205
aa(lp206
(lp207
S'006705'
p208
ag4
ag5
aF73.7
aF153.9
aF267.0
aF253.2
aa(lp209
(lp210
F89.0
aF170.0
aF270.0
aF361.0
aaaa(lp211
(lp212
S'009485'
p213
ag4
ag5
aF1.0
aF1.0
aF500.0
aF375.0
aa(lp214
aa(lp215
(lp216
S'002777'
p217
ag4
ag5
aF332.5
aF235.8
aF478.6
aF324.7
aa(lp218
aa(lp219
(lp220
S'004820'
p221
ag4
ag5
aF194.2
aF266.3
aF280.9
aF332.9
aa(lp222
aa(lp223
(lp224
S'004677'
p225
ag4
ag5
aF186.1
aF197.9
aF375.0
aF348.1
aa(lp226
aa(lp227
(lp228
S'009914'
p229
ag4
ag5
aF1.0
aF262.1
aF384.5
aF375.0
aa(lp230
aa(lp231
(lp232
S'001513'
p233
ag4
ag5
aF307.9
aF239.7
aF468.8
aF375.0
aa(lp234
aa(lp235
(lp236
S'003775'
p237
ag4
ag5
aF109.5
aF17.0
aF428.4
aF333.0
aa(lp238
aa(lp239
(lp240
S'001905'
p241
ag4
ag5
aF57.0
aF250.8
aF254.0
aF343.0
aa(lp242
(lp243
F43.0
aF258.0
aF500.0
aF343.0
aaaa(lp244
(lp245
S'004877'
p246
ag4
ag5
aF55.4
aF53.0
aF500.0
aF352.8
aa(lp247
aa(lp248
(lp249
S'006676'
p250
ag4
ag5
aF52.9
aF154.5
aF200.9
aF275.2
aa(lp251
(lp252
F326.0
aF163.0
aF500.0
aF344.0
aaaa(lp253
(lp254
S'009916'
p255
ag4
ag5
aF282.5
aF124.8
aF459.4
aF253.9
aa(lp256
(lp257
F17.0
aF96.0
aF256.0
aF250.0
aaaa(lp258
(lp259
S'000905'
p260
ag4
ag5
aF153.6
aF26.0
aF500.0
aF374.0
aa(lp261
aa(lp262
(lp263
S'004166'
p264
ag4
ag5
aF121.7
aF168.4
aF260.1
aF264.9
aa(lp265
(lp266
F1.0
aF199.0
aF99.0
aF332.0
aaaa(lp267
(lp268
S'009118'
p269
ag4
ag5
aF47.5
aF207.1
aF275.1
aF357.5
aa(lp270
(lp271
F145.0
aF157.0
aF387.0
aF322.0
aaaa(lp272
(lp273
S'001551'
p274
ag4
ag5
aF1.0
aF97.2
aF140.6
aF287.7
aa(lp275
aa(lp276
(lp277
S'005997'
p278
ag4
ag5
aF12.3
aF220.4
aF485.5
aF375.0
aa(lp279
aa(lp280
(lp281
S'001779'
p282
ag4
ag5
aF53.8
aF167.5
aF239.1
aF263.2
aa(lp283
(lp284
F36.0
aF167.0
aF390.0
aF372.0
aaaa(lp285
(lp286
S'001163'
p287
ag4
ag5
aF356.5
aF184.2
aF499.9
aF337.9
aa(lp288
(lp289
F47.0
aF187.0
aF315.0
aF375.0
aaaa(lp290
(lp291
S'005721'
p292
ag4
ag5
aF23.1
aF151.0
aF276.0
aF359.8
aa(lp293
(lp294
F5.0
aF149.0
aF488.0
aF375.0
aaaa(lp295
(lp296
S'000533'
p297
ag4
ag5
aF12.4
aF16.7
aF209.6
aF140.5
aa(lp298
(lp299
F3.0
aF2.0
aF500.0
aF152.0
aaaa(lp300
(lp301
S'005237'
p302
ag4
ag5
aF283.1
aF11.5
aF457.6
aF261.8
aa(lp303
(lp304
F25.0
aF15.0
aF487.0
aF229.0
aaaa(lp305
a(lp306
a(lp307
a(lp308
a(lp309
a(lp310
a(lp311
a(lp312
a(lp313
a(lp314
a(lp315
a(lp316
a(lp317
a(lp318
a(lp319
a(lp320
a(lp321
a(lp322
a(lp323
a(lp324
a(lp325
a(lp326
a(lp327
a(lp328
a(lp329
a(lp330
a(lp331
a(lp332
a(lp333
a(lp334
a(lp335
a(lp336
a(lp337
a(lp338
a(lp339
a(lp340
a(lp341
a(lp342
a(lp343
a(lp344
a(lp345
a(lp346
a(lp347
a(lp348
a(lp349
a(lp350
a(lp351
a(lp352
a(lp353
a(lp354
a(lp355
a(lp356
a(lp357
a(lp358
a(lp359
a(lp360
a(lp361
a(lp362
a(lp363
a(lp364
a(lp365
a(lp366
a(lp367
a(lp368
a(lp369
a(lp370
a(lp371
a(lp372
a(lp373
a(lp374
a(lp375
a(lp376
a(lp377
a(lp378
a(lp379
a(lp380
a(lp381
a(lp382
a(lp383
a(lp384
a(lp385
a(lp386
a(lp387
a(lp388
a(lp389
a(lp390
a(lp391
a(lp392
a(lp393
a(lp394
a(lp395
a(lp396
a(lp397
a(lp398
a(lp399
a(lp400
a(lp401
a(lp402
a(lp403
a(lp404
a(lp405
a(lp406
a(lp407
a(lp408
a(lp409
a(lp410
a(lp411
a(lp412
a(lp413
a(lp414
a(lp415
a(lp416
a(lp417
a(lp418
a(lp419
a(lp420
a(lp421
a(lp422
a(lp423
a(lp424
a(lp425
a(lp426
a(lp427
a(lp428
a(lp429
a(lp430
a(lp431
a(lp432
a(lp433
a(lp434
a(lp435
a(lp436
a(lp437
a(lp438
a(lp439
a(lp440
a(lp441
a(lp442
a(lp443
a(lp444
a(lp445
a(lp446
a(lp447
a(lp448
a(lp449
a(lp450
a(lp451
a(lp452
a(lp453
a(lp454
a(lp455
a(lp456
a(lp457
a(lp458
a(lp459
a(lp460
a(lp461
a(lp462
a(lp463
a(lp464
a(lp465
a(lp466
a(lp467
a(lp468
a(lp469
a(lp470
a(lp471
a(lp472
a(lp473
a(lp474
a(lp475
a(lp476
a.