(lp0
(lp1
(lp2
S'004393'
p3
aS'train'
p4
aS'err_lowIoU'
p5
aF167.9
aF202.9
aF312.7
aF346.7
aa(lp6
(lp7
F4.0
aF209.0
aF306.0
aF349.0
aaaF0.997
aa(lp8
(lp9
S'002424'
p10
ag4
ag5
aF152.1
aF125.8
aF352.0
aF269.5
aa(lp11
aF0.997
aa(lp12
(lp13
S'007107'
p14
ag4
ag5
aF172.9
aF198.4
aF337.7
aF263.5
aa(lp15
(lp16
F185.0
aF152.0
aF500.0
aF264.0
aaaF0.996
aa(lp17
(lp18
S'005504'
p19
ag4
ag5
aF2.8
aF166.7
aF356.9
aF253.6
aa(lp20
(lp21
F1.0
aF160.0
aF500.0
aF315.0
aaaF0.995
aa(lp22
(lp23
S'006204'
p24
ag4
ag5
aF109.7
aF179.0
aF230.7
aF234.0
aa(lp25
(lp26
F176.0
aF181.0
aF314.0
aF230.0
aa(lp27
F115.0
aF180.0
aF174.0
aF234.0
aaaF0.993
aa(lp28
(lp29
S'000835'
p30
ag4
ag5
aF201.9
aF112.0
aF417.3
aF233.4
aa(lp31
(lp32
F207.0
aF118.0
aF305.0
aF235.0
aa(lp33
F302.0
aF91.0
aF412.0
aF246.0
aaaF0.991
aa(lp34
(lp35
S'000333'
p36
ag4
ag5
aF175.0
aF70.3
aF372.0
aF273.7
aa(lp37
(lp38
F1.0
aF39.0
aF367.0
aF270.0
aaaF0.991
aa(lp39
(lp40
S'004603'
p41
ag4
ag5
aF169.7
aF137.0
aF342.4
aF240.0
aa(lp42
(lp43
F6.0
aF137.0
aF359.0
aF224.0
aaaF0.99
aa(lp44
(lp45
S'004711'
p46
ag4
ag5
aF194.8
aF109.4
aF454.5
aF239.5
aa(lp47
(lp48
F210.0
aF113.0
aF340.0
aF240.0
aa(lp49
F337.0
aF114.0
aF433.0
aF230.0
aaaF0.99
aa(lp50
(lp51
S'005659'
p52
ag4
ag5
aF33.8
aF159.7
aF211.5
aF225.0
aa(lp53
(lp54
F71.0
aF166.0
aF192.0
aF209.0
aa(lp55
F1.0
aF142.0
aF79.0
aF233.0
aa(lp56
F186.0
aF60.0
aF500.0
aF260.0
aaaF0.988
aa(lp57
(lp58
S'008339'
p59
ag4
ag5
aF72.6
aF142.3
aF196.5
aF242.1
aa(lp60
(lp61
F73.0
aF150.0
aF350.0
aF239.0
aaaF0.987
aa(lp62
(lp63
S'008560'
p64
ag4
ag5
aF177.3
aF55.2
aF322.9
aF263.3
aa(lp65
aF0.987
aa(lp66
(lp67
S'000333'
p68
ag4
ag5
aF8.3
aF49.2
aF262.5
aF144.5
aa(lp69
(lp70
F1.0
aF39.0
aF367.0
aF270.0
aaaF0.986
aa(lp71
(lp72
S'005504'
p73
ag4
ag5
aF384.0
aF201.6
aF497.8
aF308.4
aa(lp74
(lp75
F1.0
aF160.0
aF500.0
aF315.0
aaaF0.983
aa(lp76
(lp77
S'002487'
p78
ag4
ag5
aF38.5
aF27.7
aF474.0
aF335.7
aa(lp79
(lp80
F104.0
aF64.0
aF242.0
aF333.0
aa(lp81
F219.0
aF45.0
aF443.0
aF364.0
aaaF0.983
aa(lp82
(lp83
S'004657'
p84
ag4
ag5
aF30.8
aF101.4
aF494.9
aF313.6
aa(lp85
(lp86
F86.0
aF130.0
aF344.0
aF311.0
aa(lp87
F335.0
aF1.0
aF500.0
aF318.0
aaaF0.98
aa(lp88
(lp89
S'000735'
p90
ag4
ag5
aF376.1
aF102.5
aF492.7
aF223.9
aa(lp91
(lp92
F27.0
aF24.0
aF500.0
aF290.0
aaaF0.979
aa(lp93
(lp94
S'006629'
p95
ag4
ag5
aF291.3
aF8.7
aF494.7
aF222.8
aa(lp96
(lp97
F51.0
aF1.0
aF500.0
aF296.0
aaaF0.976
aa(lp98
(lp99
S'001094'
p100
ag4
ag5
aF32.5
aF166.8
aF210.1
aF208.7
aa(lp101
(lp102
F2.0
aF167.0
aF347.0
aF212.0
aaaF0.969
aa(lp103
(lp104
S'003474'
p105
ag4
ag5
aF105.7
aF108.1
aF481.3
aF201.7
aa(lp106
(lp107
F30.0
aF42.0
aF500.0
aF367.0
aaaF0.969
aa(lp108
(lp109
S'000942'
p110
ag4
ag5
aF22.9
aF92.6
aF328.4
aF257.5
aa(lp111
(lp112
F62.0
aF114.0
aF500.0
aF265.0
aa(lp113
F1.0
aF133.0
aF75.0
aF194.0
aaaF0.956
aa(lp114
(lp115
S'005154'
p116
ag4
ag5
aF5.0
aF81.2
aF148.3
aF201.3
aa(lp117
(lp118
F2.0
aF86.0
aF361.0
aF261.0
aaaF0.953
aa(lp119
(lp120
S'006298'
p121
ag4
ag5
aF24.4
aF25.5
aF425.9
aF327.0
aa(lp122
aF0.952
aa(lp123
(lp124
S'005986'
p125
ag4
ag5
aF209.4
aF59.8
aF404.5
aF213.4
aa(lp126
(lp127
F64.0
aF47.0
aF424.0
aF296.0
aaaF0.951
aa(lp128
(lp129
S'005690'
p130
ag4
aS'err_repeat'
p131
aF173.2
aF115.8
aF444.7
aF203.4
aa(lp132
(lp133
F2.0
aF119.0
aF443.0
aF207.0
aaaF0.95
aa(lp134
(lp135
S'007784'
p136
ag4
ag5
aF14.5
aF20.2
aF281.5
aF206.7
aa(lp137
(lp138
F9.0
aF11.0
aF500.0
aF224.0
aaaF0.95
aa(lp139
(lp140
S'004603'
p141
ag4
ag5
aF22.8
aF130.3
aF156.0
aF228.4
aa(lp142
(lp143
F6.0
aF137.0
aF359.0
aF224.0
aaaF0.943
aa(lp144
(lp145
S'002032'
p146
ag4
ag5
aF11.2
aF1.8
aF211.2
aF347.0
aa(lp147
(lp148
F3.0
aF2.0
aF500.0
aF347.0
aaaF0.942
aa(lp149
(lp150
S'001802'
p151
ag4
ag5
aF248.6
aF1.0
aF493.4
aF268.9
aa(lp152
(lp153
F1.0
aF1.0
aF499.0
aF267.0
aaaF0.939
aa(lp154
(lp155
S'005569'
p156
ag4
ag5
aF93.0
aF233.9
aF413.0
aF301.2
aa(lp157
(lp158
F69.0
aF224.0
aF413.0
aF359.0
aaaF0.931
aa(lp159
(lp160
S'007195'
p161
ag4
ag5
aF154.3
aF115.7
aF261.9
aF175.7
aa(lp162
(lp163
F85.0
aF109.0
aF412.0
aF178.0
aaaF0.926
aa(lp164
(lp165
S'007085'
p166
ag4
ag5
aF317.4
aF128.9
aF431.1
aF182.4
aa(lp167
(lp168
F76.0
aF128.0
aF499.0
aF187.0
aaaF0.913
aa(lp169
(lp170
S'000922'
p171
ag4
ag5
aF22.8
aF115.1
aF87.1
aF162.1
aa(lp172
(lp173
F126.0
aF94.0
aF218.0
aF224.0
aa(lp174
F206.0
aF114.0
aF242.0
aF171.0
aaaF0.905
aa(lp175
(lp176
S'008308'
p177
ag4
ag5
aF170.3
aF153.7
aF259.3
aF211.5
aa(lp178
(lp179
F104.0
aF162.0
aF375.0
aF221.0
aaaF0.897
aa(lp180
(lp181
S'009864'
p182
ag4
ag5
aF237.0
aF144.2
aF366.4
aF221.1
aa(lp183
(lp184
F1.0
aF143.0
aF363.0
aF245.0
aaaF0.896
aa(lp185
(lp186
S'000100'
p187
ag4
ag5
aF11.2
aF72.0
aF131.5
aF223.9
aa(lp188
(lp189
F3.0
aF47.0
aF432.0
aF222.0
aaaF0.894
aa(lp190
(lp191
S'006356'
p192
ag4
ag5
aF13.6
aF121.9
aF166.6
aF234.1
aa(lp193
(lp194
F3.0
aF68.0
aF500.0
aF277.0
aaaF0.894
aa(lp195
(lp196
S'005855'
p197
ag4
ag5
aF307.5
aF117.9
aF472.8
aF178.7
aa(lp198
(lp199
F40.0
aF85.0
aF464.0
aF194.0
aaaF0.881
aa(lp200
(lp201
S'006763'
p202
ag4
ag5
aF3.5
aF168.7
aF171.6
aF234.5
aa(lp203
(lp204
F1.0
aF108.0
aF345.0
aF239.0
aaaF0.876
aa(lp205
(lp206
S'005504'
p207
ag4
ag5
aF1.0
aF154.2
aF167.5
aF218.7
aa(lp208
(lp209
F1.0
aF160.0
aF500.0
aF315.0
aaaF0.875
aa(lp210
(lp211
S'007450'
p212
ag4
ag5
aF8.2
aF194.3
aF96.6
aF243.2
aa(lp213
(lp214
F1.0
aF178.0
aF190.0
aF241.0
aaaF0.874
aa(lp215
(lp216
S'007520'
p217
ag4
ag5
aF27.4
aF1.0
aF258.5
aF330.3
aa(lp218
(lp219
F3.0
aF1.0
aF500.0
aF374.0
aaaF0.868
aa(lp220
(lp221
S'008412'
p222
ag4
ag5
aF4.6
aF132.8
aF174.4
aF206.8
aa(lp223
(lp224
F1.0
aF132.0
aF358.0
aF209.0
aa(lp225
F325.0
aF88.0
aF500.0
aF205.0
aaaF0.867
aa(lp226
(lp227
S'008339'
p228
ag4
ag5
aF180.0
aF170.6
aF350.3
aF229.4
aa(lp229
(lp230
F73.0
aF150.0
aF350.0
aF239.0
aaaF0.859
aa(lp231
(lp232
S'000833'
p233
ag4
ag5
aF13.5
aF3.9
aF409.6
aF373.9
aa(lp234
aF0.858
aa(lp235
(lp236
S'002521'
p237
ag4
ag5
aF274.8
aF93.2
aF480.7
aF242.5
aa(lp238
(lp239
F11.0
aF59.0
aF496.0
aF255.0
aaaF0.853
aa(lp240
(lp241
S'001030'
p242
ag4
ag5
aF283.5
aF138.4
aF445.2
aF219.9
aa(lp243
(lp244
F36.0
aF77.0
aF442.0
aF265.0
aaaF0.85
aa(lp245
(lp246
S'008696'
p247
ag4
ag5
aF100.6
aF83.8
aF294.9
aF247.6
aa(lp248
(lp249
F12.0
aF50.0
aF500.0
aF291.0
aaaF0.849
aa(lp250
(lp251
S'001094'
p252
ag4
ag5
aF190.7
aF171.6
aF335.7
aF207.7
aa(lp253
(lp254
F2.0
aF167.0
aF347.0
aF212.0
aaaF0.847
aa(lp255
(lp256
S'002066'
p257
ag4
ag5
aF5.8
aF250.8
aF198.9
aF435.3
aa(lp258
(lp259
F1.0
aF284.0
aF145.0
aF323.0
aaaF0.84
aa(lp260
(lp261
S'009806'
p262
ag4
ag5
aF169.8
aF33.0
aF410.9
aF235.7
aa(lp263
aF0.837
aa(lp264
(lp265
S'007861'
p266
ag4
ag5
aF84.9
aF35.8
aF400.1
aF172.9
aa(lp267
aF0.832
aa(lp268
(lp269
S'007085'
p270
ag4
ag5
aF419.9
aF128.2
aF492.7
aF170.6
aa(lp271
(lp272
F76.0
aF128.0
aF499.0
aF187.0
aaaF0.83
aa(lp273
(lp274
S'009682'
p275
ag4
ag5
aF253.2
aF140.9
aF404.0
aF279.9
aa(lp276
(lp277
F1.0
aF93.0
aF407.0
aF264.0
aa(lp278
F337.0
aF108.0
aF500.0
aF199.0
aaaF0.828
aa(lp279
(lp280
S'001115'
p281
ag4
ag5
aF391.8
aF103.7
aF491.9
aF261.5
aa(lp282
(lp283
F104.0
aF113.0
aF500.0
aF261.0
aa(lp284
F1.0
aF117.0
aF86.0
aF229.0
aaaF0.825
aa(lp285
(lp286
S'004324'
p287
ag4
ag5
aF2.5
aF68.8
aF102.2
aF303.0
aa(lp288
(lp289
F1.0
aF64.0
aF412.0
aF323.0
aaaF0.819
aa(lp290
(lp291
S'008065'
p292
ag4
ag5
aF18.2
aF230.4
aF320.6
aF322.1
aa(lp293
(lp294
F2.0
aF261.0
aF500.0
aF334.0
aaaF0.81
aa(lp295
(lp296
S'004853'
p297
ag4
ag5
aF297.5
aF82.4
aF450.0
aF224.3
aa(lp298
(lp299
F33.0
aF84.0
aF447.0
aF219.0
aaaF0.799
aa(lp300
(lp301
S'000970'
p302
ag4
ag5
aF213.4
aF132.9
aF392.9
aF219.3
aa(lp303
(lp304
F344.0
aF128.0
aF414.0
aF214.0
aa(lp305
F1.0
aF64.0
aF500.0
aF375.0
aaaF0.79
aa(lp306
(lp307
S'005240'
p308
ag4
ag5
aF91.5
aF150.0
aF246.9
aF304.5
aa(lp309
(lp310
F56.0
aF82.0
aF483.0
aF353.0
aaaF0.773
aa(lp311
(lp312
S'000281'
p313
ag4
ag5
aF27.8
aF42.7
aF173.2
aF284.5
aa(lp314
(lp315
F47.0
aF93.0
aF436.0
aF254.0
aaaF0.773
aa(lp316
(lp317
S'002688'
p318
ag4
ag5
aF27.1
aF141.9
aF184.0
aF287.9
aa(lp319
(lp320
F1.0
aF87.0
aF467.0
aF293.0
aaaF0.773
aa(lp321
(lp322
S'003474'
p323
ag4
ag5
aF12.0
aF108.2
aF353.7
aF155.0
aa(lp324
(lp325
F30.0
aF42.0
aF500.0
aF367.0
aaaF0.772
aa(lp326
(lp327
S'002758'
p328
ag4
ag5
aF57.4
aF155.5
aF169.0
aF245.5
aa(lp329
aF0.757
aa(lp330
(lp331
S'004663'
p332
ag4
ag5
aF32.5
aF126.5
aF193.3
aF256.4
aa(lp333
(lp334
F1.0
aF168.0
aF407.0
aF260.0
aaaF0.735
aa(lp335
(lp336
S'008630'
p337
ag4
ag5
aF40.9
aF36.7
aF462.6
aF298.9
aa(lp338
aF0.725
aa(lp339
a(lp340
a(lp341
a(lp342
a(lp343
a(lp344
a(lp345
a(lp346
a(lp347
a(lp348
a(lp349
a(lp350
a(lp351
a(lp352
a(lp353
a(lp354
a(lp355
a(lp356
a(lp357
a(lp358
a(lp359
a(lp360
a(lp361
a(lp362
a(lp363
a(lp364
a(lp365
a(lp366
a(lp367
a(lp368
a(lp369
a(lp370
a(lp371
a(lp372
a(lp373
a(lp374
a(lp375
a(lp376
a(lp377
a(lp378
a(lp379
a(lp380
a(lp381
a(lp382
a(lp383
a(lp384
a(lp385
a(lp386
a(lp387
a(lp388
a(lp389
a(lp390
a(lp391
a(lp392
a(lp393
a(lp394
a(lp395
a(lp396
a(lp397
a(lp398
a(lp399
a(lp400
a(lp401
a(lp402
a(lp403
a(lp404
a(lp405
a(lp406
a(lp407
a(lp408
a(lp409
a(lp410
a(lp411
a(lp412
a(lp413
a(lp414
a(lp415
a(lp416
a(lp417
a(lp418
a(lp419
a(lp420
a(lp421
a(lp422
a(lp423
a(lp424
a(lp425
a(lp426
a(lp427
a(lp428
a(lp429
a(lp430
a(lp431
a(lp432
a(lp433
a(lp434
a(lp435
a(lp436
a(lp437
a(lp438
a(lp439
a(lp440
a(lp441
a(lp442
a(lp443
a(lp444
a(lp445
a(lp446
a(lp447
a(lp448
a(lp449
a(lp450
a(lp451
a(lp452
a(lp453
a(lp454
a(lp455
a(lp456
a(lp457
a(lp458
a(lp459
a(lp460
a(lp461
a(lp462
a(lp463
a(lp464
a(lp465
a(lp466
a(lp467
a(lp468
a(lp469
a(lp470
a(lp471
a(lp472
a(lp473
a(lp474
a(lp475
a(lp476
a(lp477
a(lp478
a(lp479
a(lp480
a(lp481
a(lp482
a(lp483
a(lp484
a(lp485
a(lp486
a(lp487
a(lp488
a(lp489
a(lp490
a(lp491
a(lp492
a(lp493
a(lp494
a(lp495
a(lp496
a(lp497
a(lp498
a(lp499
a(lp500
a(lp501
a(lp502
a(lp503
a(lp504
a(lp505
a(lp506
a(lp507
a(lp508
a(lp509
a(lp510
a(lp511
a(lp512
a(lp513
a(lp514
a(lp515
a(lp516
a(lp517
a(lp518
a(lp519
a(lp520
a(lp521
a(lp522
a(lp523
a(lp524
a(lp525
a(lp526
a(lp527
a(lp528
a(lp529
a(lp530
a(lp531
a(lp532
a(lp533
a(lp534
a(lp535
a(lp536
a(lp537
a(lp538
a(lp539
a(lp540
a(lp541
a(lp542
a(lp543
a(lp544
a(lp545
a(lp546
a(lp547
a(lp548
a(lp549
a(lp550
a(lp551
a(lp552
a(lp553
a(lp554
a.