(lp0
(lp1
(lp2
S'001696'
p3
aS'tvmonitor'
p4
aS'err_lowIoU'
p5
aF266.0
aF136.4
aF319.6
aF193.2
aa(lp6
aF0.997
aa(lp7
(lp8
S'000045'
p9
ag4
ag5
aF1.0
aF118.8
aF231.7
aF315.7
aa(lp10
(lp11
F280.0
aF64.0
aF483.0
aF252.0
aaaF0.995
aa(lp12
(lp13
S'000124'
p14
ag4
ag5
aF7.6
aF135.1
aF141.6
aF260.4
aa(lp15
aF0.993
aa(lp16
(lp17
S'008274'
p18
ag4
ag5
aF134.0
aF93.2
aF250.4
aF198.5
aa(lp19
(lp20
F240.0
aF22.0
aF474.0
aF255.0
aaaF0.993
aa(lp21
(lp22
S'008561'
p23
ag4
ag5
aF2.5
aF94.3
aF150.4
aF228.7
aa(lp24
(lp25
F328.0
aF56.0
aF500.0
aF265.0
aa(lp26
F142.0
aF61.0
aF323.0
aF232.0
aaaF0.991
aa(lp27
(lp28
S'002515'
p29
ag4
ag5
aF344.0
aF194.5
aF422.5
aF288.0
aa(lp30
aF0.99
aa(lp31
(lp32
S'009165'
p33
ag4
ag5
aF45.3
aF48.8
aF231.1
aF301.2
aa(lp34
(lp35
F89.0
aF46.0
aF222.0
aF211.0
aa(lp36
F217.0
aF49.0
aF356.0
aF178.0
aa(lp37
F302.0
aF164.0
aF358.0
aF230.0
aa(lp38
F203.0
aF153.0
aF302.0
aF244.0
aa(lp39
F1.0
aF61.0
aF68.0
aF173.0
aa(lp40
F1.0
aF1.0
aF51.0
aF55.0
aaaF0.99
aa(lp41
(lp42
S'001826'
p43
ag4
ag5
aF320.6
aF197.9
aF364.2
aF238.0
aa(lp44
(lp45
F451.0
aF117.0
aF500.0
aF176.0
aaaF0.987
aa(lp46
(lp47
S'005551'
p48
ag4
ag5
aF51.1
aF36.8
aF172.1
aF128.0
aa(lp49
aF0.986
aa(lp50
(lp51
S'004884'
p52
ag4
ag5
aF57.8
aF95.0
aF192.1
aF253.4
aa(lp53
aF0.986
aa(lp54
(lp55
S'004781'
p56
ag4
ag5
aF40.2
aF119.4
aF141.5
aF175.0
aa(lp57
(lp58
F56.0
aF72.0
aF93.0
aF103.0
aa(lp59
F47.0
aF120.0
aF86.0
aF172.0
aa(lp60
F88.0
aF123.0
aF129.0
aF174.0
aa(lp61
F350.0
aF129.0
aF394.0
aF199.0
aa(lp62
F392.0
aF129.0
aF446.0
aF210.0
aaaF0.984
aa(lp63
(lp64
S'001500'
p65
ag4
ag5
aF56.0
aF127.5
aF172.0
aF263.0
aa(lp66
(lp67
F203.0
aF52.0
aF342.0
aF168.0
aaaF0.983
aa(lp68
(lp69
S'003291'
p70
ag4
ag5
aF76.5
aF66.8
aF263.5
aF226.8
aa(lp71
(lp72
F285.0
aF68.0
aF375.0
aF235.0
aaaF0.982
aa(lp73
(lp74
S'008291'
p75
ag4
ag5
aF142.8
aF166.8
aF218.1
aF262.2
aa(lp76
(lp77
F133.0
aF1.0
aF397.0
aF166.0
aaaF0.978
aa(lp78
(lp79
S'002902'
p80
ag4
ag5
aF2.5
aF201.3
aF94.0
aF322.4
aa(lp81
(lp82
F163.0
aF85.0
aF300.0
aF224.0
aaaF0.978
aa(lp83
(lp84
S'006554'
p85
ag4
ag5
aF1.0
aF193.2
aF141.6
aF303.8
aa(lp86
aF0.976
aa(lp87
(lp88
S'006644'
p89
ag4
ag5
aF1.0
aF9.1
aF100.0
aF121.8
aa(lp90
aF0.975
aa(lp91
(lp92
S'008887'
p93
ag4
ag5
aF58.6
aF184.3
aF132.4
aF254.1
aa(lp94
(lp95
F355.0
aF38.0
aF447.0
aF134.0
aa(lp96
F176.0
aF142.0
aF297.0
aF244.0
aaaF0.968
aa(lp97
(lp98
S'002850'
p99
ag4
ag5
aF140.6
aF94.3
aF197.4
aF184.4
aa(lp100
(lp101
F327.0
aF86.0
aF481.0
aF219.0
aa(lp102
F196.0
aF80.0
aF314.0
aF192.0
aaaF0.965
aa(lp103
(lp104
S'002356'
p105
ag4
ag5
aF373.9
aF133.4
aF496.9
aF280.4
aa(lp106
(lp107
F4.0
aF54.0
aF158.0
aF223.0
aaaF0.962
aa(lp108
(lp109
S'003507'
p110
ag4
ag5
aF320.3
aF149.5
aF422.8
aF268.2
aa(lp111
(lp112
F122.0
aF178.0
aF223.0
aF256.0
aa(lp113
F450.0
aF99.0
aF500.0
aF243.0
aaaF0.957
aa(lp114
(lp115
S'004690'
p116
ag4
ag5
aF101.0
aF46.4
aF195.5
aF166.0
aa(lp117
aF0.956
aa(lp118
(lp119
S'005551'
p120
ag4
ag5
aF175.8
aF40.4
aF261.4
aF146.3
aa(lp121
aF0.946
aa(lp122
(lp123
S'002240'
p124
ag4
ag5
aF65.2
aF155.7
aF149.4
aF294.6
aa(lp125
aF0.944
aa(lp126
(lp127
S'000893'
p128
ag4
ag5
aF30.9
aF314.3
aF308.7
aF491.4
aa(lp129
aF0.941
aa(lp130
(lp131
S'001429'
p132
ag4
ag5
aF400.1
aF249.7
aF483.5
aF354.9
aa(lp133
aF0.94
aa(lp134
(lp135
S'006688'
p136
ag4
ag5
aF367.4
aF4.4
aF440.6
aF92.9
aa(lp137
(lp138
F98.0
aF223.0
aF500.0
aF374.0
aaaF0.939
aa(lp139
(lp140
S'002601'
p141
ag4
ag5
aF110.5
aF40.0
aF206.1
aF227.3
aa(lp142
(lp143
F1.0
aF82.0
aF128.0
aF273.0
aaaF0.938
aa(lp144
(lp145
S'006774'
p146
ag4
ag5
aF185.2
aF2.1
aF267.9
aF89.4
aa(lp147
(lp148
F103.0
aF1.0
aF260.0
aF91.0
aaaF0.935
aa(lp149
(lp150
S'000124'
p151
ag4
ag5
aF191.3
aF87.8
aF305.9
aF180.0
aa(lp152
aF0.929
aa(lp153
(lp154
S'000953'
p155
ag4
ag5
aF207.4
aF189.5
aF381.7
aF352.7
aa(lp156
aF0.929
aa(lp157
(lp158
S'005543'
p159
ag4
ag5
aF1.0
aF165.8
aF145.0
aF375.0
aa(lp160
aF0.914
aa(lp161
(lp162
S'002062'
p163
ag4
ag5
aF316.3
aF119.2
aF466.0
aF350.7
aa(lp164
(lp165
F87.0
aF84.0
aF308.0
aF314.0
aaaF0.892
aa(lp166
(lp167
S'006116'
p168
ag4
ag5
aF109.9
aF157.1
aF176.5
aF214.0
aa(lp169
(lp170
F169.0
aF98.0
aF343.0
aF232.0
aaaF0.888
aa(lp171
(lp172
S'009632'
p173
ag4
ag5
aF353.7
aF201.0
aF419.7
aF253.4
aa(lp174
aF0.868
aa(lp175
(lp176
S'004781'
p177
ag4
ag5
aF346.3
aF108.7
aF454.4
aF206.8
aa(lp178
(lp179
F56.0
aF72.0
aF93.0
aF103.0
aa(lp180
F47.0
aF120.0
aF86.0
aF172.0
aa(lp181
F88.0
aF123.0
aF129.0
aF174.0
aa(lp182
F350.0
aF129.0
aF394.0
aF199.0
aa(lp183
F392.0
aF129.0
aF446.0
aF210.0
aaaF0.862
aa(lp184
(lp185
S'000366'
p186
ag4
ag5
aF107.5
aF49.6
aF285.1
aF199.6
aa(lp187
aF0.859
aa(lp188
(lp189
S'009404'
p190
ag4
ag5
aF110.0
aF92.1
aF225.5
aF189.9
aa(lp191
(lp192
F1.0
aF32.0
aF259.0
aF276.0
aa(lp193
F261.0
aF53.0
aF500.0
aF317.0
aaaF0.849
aa(lp194
(lp195
S'005178'
p196
ag4
ag5
aF370.5
aF3.6
aF483.1
aF375.0
aa(lp197
(lp198
F91.0
aF33.0
aF482.0
aF375.0
aaaF0.846
aa(lp199
(lp200
S'008011'
p201
ag4
ag5
aF195.9
aF8.9
aF499.2
aF321.5
aa(lp202
aF0.841
aa(lp203
(lp204
S'004098'
p205
ag4
ag5
aF165.5
aF193.6
aF200.5
aF251.6
aa(lp206
aF0.825
aa(lp207
(lp208
S'007522'
p209
ag4
ag5
aF171.3
aF250.5
aF256.3
aF368.2
aa(lp210
aF0.824
aa(lp211
(lp212
S'005827'
p213
ag4
ag5
aF346.0
aF69.4
aF396.5
aF166.9
aa(lp214
(lp215
F351.0
aF65.0
aF450.0
aF161.0
aaaF0.816
aa(lp216
(lp217
S'003686'
p218
ag4
ag5
aF8.2
aF51.2
aF102.4
aF367.2
aa(lp219
(lp220
F117.0
aF40.0
aF475.0
aF374.0
aaaF0.807
aa(lp221
(lp222
S'009256'
p223
ag4
ag5
aF1.0
aF280.6
aF341.8
aF375.0
aa(lp224
aF0.803
aa(lp225
(lp226
S'007607'
p227
ag4
ag5
aF209.5
aF141.9
aF261.7
aF225.3
aa(lp228
aF0.795
aa(lp229
(lp230
S'004260'
p231
ag4
ag5
aF113.5
aF1.0
aF275.2
aF106.0
aa(lp232
(lp233
F85.0
aF1.0
aF404.0
aF136.0
aaaF0.793
aa(lp234
(lp235
S'003934'
p236
ag4
ag5
aF271.4
aF242.6
aF360.3
aF366.5
aa(lp237
(lp238
F1.0
aF115.0
aF85.0
aF264.0
aaaF0.788
aa(lp239
(lp240
S'004114'
p241
ag4
ag5
aF418.4
aF87.0
aF500.0
aF264.2
aa(lp242
aF0.786
aa(lp243
(lp244
S'006676'
p245
ag4
ag5
aF233.2
aF152.1
aF302.2
aF206.3
aa(lp246
aF0.786
aa(lp247
(lp248
S'009690'
p249
ag4
ag5
aF295.3
aF94.5
aF369.9
aF199.0
aa(lp250
aF0.784
aa(lp251
(lp252
S'003208'
p253
ag4
ag5
aF157.1
aF1.0
aF345.0
aF170.8
aa(lp254
aF0.781
aa(lp255
(lp256
S'006817'
p257
ag4
ag5
aF6.5
aF201.3
aF192.8
aF333.0
aa(lp258
(lp259
F170.0
aF110.0
aF227.0
aF195.0
aa(lp260
F226.0
aF111.0
aF302.0
aF195.0
aa(lp261
F334.0
aF105.0
aF391.0
aF196.0
aa(lp262
F1.0
aF156.0
aF26.0
aF237.0
aaaF0.77
aa(lp263
(lp264
S'004534'
p265
ag4
ag5
aF426.4
aF154.1
aF477.4
aF215.2
aa(lp266
aF0.762
aa(lp267
(lp268
S'003801'
p269
ag4
ag5
aF324.8
aF6.5
aF453.8
aF304.5
aa(lp270
(lp271
F93.0
aF43.0
aF293.0
aF247.0
aaaF0.755
aa(lp272
(lp273
S'005994'
p274
ag4
ag5
aF416.2
aF123.6
aF500.0
aF262.5
aa(lp275
aF0.745
aa(lp276
(lp277
S'004180'
p278
ag4
ag5
aF429.2
aF27.4
aF498.4
aF127.7
aa(lp279
aF0.742
aa(lp280
(lp281
S'005464'
p282
ag4
ag5
aF150.0
aF35.9
aF213.7
aF110.8
aa(lp283
aF0.739
aa(lp284
(lp285
S'008457'
p286
ag4
ag5
aF131.3
aF401.0
aF193.2
aF473.1
aa(lp287
aF0.734
aa(lp288
(lp289
S'001374'
p290
ag4
ag5
aF228.5
aF219.5
aF288.4
aF260.1
aa(lp291
aF0.719
aa(lp292
(lp293
S'003649'
p294
ag4
ag5
aF228.5
aF94.5
aF292.1
aF164.7
aa(lp295
aF0.713
aa(lp296
(lp297
S'000327'
p298
ag4
ag5
aF218.6
aF101.1
aF271.4
aF173.8
aa(lp299
aF0.713
aa(lp300
(lp301
S'009165'
p302
ag4
ag5
aF239.0
aF186.0
aF302.0
aF236.1
aa(lp303
(lp304
F89.0
aF46.0
aF222.0
aF211.0
aa(lp305
F217.0
aF49.0
aF356.0
aF178.0
aa(lp306
F302.0
aF164.0
aF358.0
aF230.0
aa(lp307
F203.0
aF153.0
aF302.0
aF244.0
aa(lp308
F1.0
aF61.0
aF68.0
aF173.0
aa(lp309
F1.0
aF1.0
aF51.0
aF55.0
aaaF0.713
aa(lp310
(lp311
S'007564'
p312
ag4
ag5
aF178.1
aF169.3
aF218.4
aF202.1
aa(lp313
(lp314
F322.0
aF155.0
aF372.0
aF203.0
aaaF0.708
aa(lp315
(lp316
S'000385'
p317
ag4
ag5
aF287.3
aF50.3
aF357.1
aF128.9
aa(lp318
aF0.703
aa(lp319
(lp320
S'003345'
p321
ag4
ag5
aF156.3
aF229.1
aF224.2
aF306.2
aa(lp322
aF0.696
aa(lp323
(lp324
S'002665'
p325
ag4
ag5
aF241.3
aF163.0
aF290.4
aF208.3
aa(lp326
aF0.673
aa(lp327
(lp328
S'002638'
p329
ag4
ag5
aF1.0
aF227.1
aF161.4
aF375.0
aa(lp330
(lp331
F86.0
aF74.0
aF136.0
aF98.0
aa(lp332
F217.0
aF78.0
aF297.0
aF146.0
aa(lp333
F129.0
aF79.0
aF221.0
aF167.0
aaaF0.668
aa(lp334
(lp335
S'006383'
p336
ag4
ag5
aF425.5
aF41.4
aF468.7
aF111.9
aa(lp337
aF0.668
aa(lp338
(lp339
S'009226'
p340
ag4
ag5
aF404.2
aF123.6
aF455.0
aF224.1
aa(lp341
(lp342
F128.0
aF1.0
aF351.0
aF209.0
aaaF0.667
aa(lp343
(lp344
S'000758'
p345
ag4
ag5
aF59.8
aF124.4
aF142.9
aF256.0
aa(lp346
(lp347
F8.0
aF1.0
aF454.0
aF373.0
aaaF0.662
aa(lp348
(lp349
S'005748'
p350
ag4
ag5
aF85.2
aF61.3
aF200.8
aF208.5
aa(lp351
aF0.657
aa(lp352
a(lp353
a(lp354
a(lp355
a(lp356
a(lp357
a(lp358
a(lp359
a(lp360
a(lp361
a(lp362
a(lp363
a(lp364
a(lp365
a(lp366
a(lp367
a(lp368
a(lp369
a(lp370
a(lp371
a(lp372
a(lp373
a(lp374
a(lp375
a(lp376
a(lp377
a(lp378
a(lp379
a(lp380
a(lp381
a(lp382
a(lp383
a(lp384
a(lp385
a(lp386
a(lp387
a(lp388
a(lp389
a(lp390
a(lp391
a(lp392
a(lp393
a(lp394
a(lp395
a(lp396
a(lp397
a(lp398
a(lp399
a(lp400
a(lp401
a(lp402
a(lp403
a(lp404
a(lp405
a(lp406
a(lp407
a(lp408
a(lp409
a(lp410
a(lp411
a(lp412
a(lp413
a(lp414
a(lp415
a(lp416
a(lp417
a(lp418
a(lp419
a(lp420
a(lp421
a(lp422
a(lp423
a(lp424
a(lp425
a(lp426
a(lp427
a(lp428
a(lp429
a(lp430
a(lp431
a(lp432
a(lp433
a(lp434
a(lp435
a(lp436
a(lp437
a(lp438
a(lp439
a(lp440
a(lp441
a(lp442
a(lp443
a(lp444
a(lp445
a(lp446
a(lp447
a(lp448
a(lp449
a(lp450
a(lp451
a(lp452
a(lp453
a(lp454
a(lp455
a(lp456
a(lp457
a(lp458
a(lp459
a(lp460
a(lp461
a(lp462
a(lp463
a(lp464
a(lp465
a(lp466
a(lp467
a(lp468
a(lp469
a(lp470
a(lp471
a(lp472
a(lp473
a(lp474
a(lp475
a(lp476
a(lp477
a(lp478
a(lp479
a(lp480
a(lp481
a(lp482
a(lp483
a(lp484
a(lp485
a(lp486
a(lp487
a(lp488
a(lp489
a(lp490
a(lp491
a(lp492
a(lp493
a(lp494
a(lp495
a(lp496
a(lp497
a(lp498
a(lp499
a(lp500
a(lp501
a(lp502
a(lp503
a(lp504
a(lp505
a(lp506
a(lp507
a(lp508
a(lp509
a(lp510
a(lp511
a(lp512
a(lp513
a(lp514
a(lp515
a(lp516
a(lp517
a(lp518
a(lp519
a(lp520
a(lp521
a(lp522
a(lp523
a(lp524
a(lp525
a(lp526
a(lp527
a(lp528
a(lp529
a(lp530
a(lp531
a(lp532
a(lp533
a(lp534
a(lp535
a(lp536
a(lp537
a(lp538
a(lp539
a(lp540
a(lp541
a(lp542
a(lp543
a(lp544
a(lp545
a(lp546
a(lp547
a(lp548
a(lp549
a(lp550
a(lp551
a(lp552
a(lp553
a(lp554
a(lp555
a(lp556
a(lp557
a(lp558
a(lp559
a(lp560
a(lp561
a(lp562
a(lp563
a(lp564
a(lp565
a(lp566
a(lp567
a(lp568
a(lp569
a(lp570
a(lp571
a(lp572
a(lp573
a(lp574
a(lp575
a(lp576
a(lp577
a(lp578
a(lp579
a(lp580
a(lp581
a(lp582
a(lp583
a(lp584
a(lp585
a(lp586
a(lp587
a.